ARM GAS  C:\Users\youkan\AppData\Local\Temp\cc3E6idv.s 			page 1


   1              		.syntax unified
   2              		.cpu cortex-m3
   3              		.fpu softvfp
   4              		.eabi_attribute 20, 1
   5              		.eabi_attribute 21, 1
   6              		.eabi_attribute 23, 3
   7              		.eabi_attribute 24, 1
   8              		.eabi_attribute 25, 1
   9              		.eabi_attribute 26, 1
  10              		.eabi_attribute 30, 1
  11              		.eabi_attribute 34, 1
  12              		.eabi_attribute 18, 4
  13              		.thumb
  14              		.file	"Debugs.c"
  15              		.text
  16              	.Ltext0:
  17              		.cfi_sections	.debug_frame
  18              		.section	.text.DBG_Init,"ax",%progbits
  19              		.align	2
  20              		.global	DBG_Init
  21              		.thumb
  22              		.thumb_func
  23              		.type	DBG_Init, %function
  24              	DBG_Init:
  25              	.LFB63:
  26              		.file 1 "Debugs.c"
   1:Debugs.c      **** /* ========================================
   2:Debugs.c      ****  *
   3:Debugs.c      ****  * Copyright YOUR COMPANY, THE YEAR
   4:Debugs.c      ****  * All Rights Reserved
   5:Debugs.c      ****  * UNPUBLISHED, LICENSED SOFTWARE.
   6:Debugs.c      ****  *
   7:Debugs.c      ****  * CONFIDENTIAL AND PROPRIETARY INFORMATION
   8:Debugs.c      ****  * WHICH IS THE PROPERTY OF your company.
   9:Debugs.c      ****  *
  10:Debugs.c      ****  * ========================================
  11:Debugs.c      **** */
  12:Debugs.c      **** 
  13:Debugs.c      **** /* [] END OF FILE */
  14:Debugs.c      **** 
  15:Debugs.c      **** 
  16:Debugs.c      **** #include "Debugs.h"
  17:Debugs.c      **** #include "project.h"
  18:Debugs.c      **** 
  19:Debugs.c      **** void DBG_Init();
  20:Debugs.c      **** void DBG_printf(char str[]);
  21:Debugs.c      **** 
  22:Debugs.c      **** void DBG_Init()
  23:Debugs.c      **** {
  27              		.loc 1 23 0
  28              		.cfi_startproc
  29              		@ args = 0, pretend = 0, frame = 0
  30              		@ frame_needed = 0, uses_anonymous_args = 0
  31 0000 08B5     		push	{r3, lr}
  32              		.cfi_def_cfa_offset 8
  33              		.cfi_offset 3, -8
  34              		.cfi_offset 14, -4
ARM GAS  C:\Users\youkan\AppData\Local\Temp\cc3E6idv.s 			page 2


  24:Debugs.c      ****     UART_TO_DEBUG_Init();
  35              		.loc 1 24 0
  36 0002 FFF7FEFF 		bl	UART_TO_DEBUG_Init
  37              	.LVL0:
  25:Debugs.c      ****     UART_TO_DEBUG_Start();
  38              		.loc 1 25 0
  39 0006 FFF7FEFF 		bl	UART_TO_DEBUG_Start
  40              	.LVL1:
  41 000a 08BD     		pop	{r3, pc}
  42              		.cfi_endproc
  43              	.LFE63:
  44              		.size	DBG_Init, .-DBG_Init
  45              		.section	.text.DBG_printf,"ax",%progbits
  46              		.align	2
  47              		.global	DBG_printf
  48              		.thumb
  49              		.thumb_func
  50              		.type	DBG_printf, %function
  51              	DBG_printf:
  52              	.LFB64:
  26:Debugs.c      **** }
  27:Debugs.c      **** 
  28:Debugs.c      **** void DBG_printf(char str[])
  29:Debugs.c      **** {
  53              		.loc 1 29 0
  54              		.cfi_startproc
  55              		@ args = 0, pretend = 0, frame = 0
  56              		@ frame_needed = 0, uses_anonymous_args = 0
  57              	.LVL2:
  58 0000 08B5     		push	{r3, lr}
  59              		.cfi_def_cfa_offset 8
  60              		.cfi_offset 3, -8
  61              		.cfi_offset 14, -4
  30:Debugs.c      ****     UART_TO_DEBUG_PutString(str);
  62              		.loc 1 30 0
  63 0002 FFF7FEFF 		bl	UART_TO_DEBUG_PutString
  64              	.LVL3:
  65 0006 08BD     		pop	{r3, pc}
  66              		.cfi_endproc
  67              	.LFE64:
  68              		.size	DBG_printf, .-DBG_printf
  69              		.text
  70              	.Letext0:
  71              		.file 2 "c:\\program files (x86)\\cypress\\psoc creator\\4.0\\psoc creator\\import\\gnu\\arm\\4.9.
  72              		.file 3 "c:\\program files (x86)\\cypress\\psoc creator\\4.0\\psoc creator\\import\\gnu\\arm\\4.9.
  73              		.file 4 "Generated_Source\\PSoC5/cytypes.h"
  74              		.file 5 "Generated_Source\\PSoC5/UART_TO_DEBUG.h"
  75              		.file 6 "Generated_Source\\PSoC5/core_cm3.h"