ARM GAS  C:\Users\youkan\AppData\Local\Temp\ccCY0cpc.s 			page 1


   1              		.syntax unified
   2              		.cpu cortex-m3
   3              		.fpu softvfp
   4              		.eabi_attribute 20, 1
   5              		.eabi_attribute 21, 1
   6              		.eabi_attribute 23, 3
   7              		.eabi_attribute 24, 1
   8              		.eabi_attribute 25, 1
   9              		.eabi_attribute 26, 1
  10              		.eabi_attribute 30, 1
  11              		.eabi_attribute 34, 1
  12              		.eabi_attribute 18, 4
  13              		.thumb
  14              		.file	"PSC_MAIN.c"
  15              		.text
  16              	.Ltext0:
  17              		.cfi_sections	.debug_frame
  18              		.section	.text.psc_Initialize,"ax",%progbits
  19              		.align	2
  20              		.global	psc_Initialize
  21              		.thumb
  22              		.thumb_func
  23              		.type	psc_Initialize, %function
  24              	psc_Initialize:
  25              	.LFB65:
  26              		.file 1 "PSC_MAIN.c"
   1:PSC_MAIN.c    **** /* ========================================
   2:PSC_MAIN.c    ****  *
   3:PSC_MAIN.c    ****  * Copyright YOUR COMPANY, THE YEAR
   4:PSC_MAIN.c    ****  * All Rights Reserved
   5:PSC_MAIN.c    ****  * UNPUBLISHED, LICENSED SOFTWARE.
   6:PSC_MAIN.c    ****  *
   7:PSC_MAIN.c    ****  * CONFIDENTIAL AND PROPRIETARY INFORMATION
   8:PSC_MAIN.c    ****  * WHICH IS THE PROPERTY OF your company.
   9:PSC_MAIN.c    ****  *
  10:PSC_MAIN.c    ****  * ========================================
  11:PSC_MAIN.c    **** */
  12:PSC_MAIN.c    **** 
  13:PSC_MAIN.c    **** /* [] END OF FILE */
  14:PSC_MAIN.c    **** 
  15:PSC_MAIN.c    **** #include "PSC_MAIN.h"
  16:PSC_MAIN.c    **** #include "PSC_Types.h"
  17:PSC_MAIN.c    **** #include "PSC_Communicate.h"
  18:PSC_MAIN.c    **** #include "PSC_CMD_API.h"
  19:PSC_MAIN.c    **** #include "PSC_Proc_Common.h"
  20:PSC_MAIN.c    **** #include "PSC_Proc_CameraShot.h"
  21:PSC_MAIN.c    **** #include "Debugs.h"
  22:PSC_MAIN.c    **** 
  23:PSC_MAIN.c    **** //Typedef
  24:PSC_MAIN.c    **** //-------------------------------------------------//
  25:PSC_MAIN.c    **** 
  26:PSC_MAIN.c    **** typedef enum PSC_STATEtag
  27:PSC_MAIN.c    **** {
  28:PSC_MAIN.c    ****     PSC_ST_IDLE,
  29:PSC_MAIN.c    ****     PSC_ST_RUN,
  30:PSC_MAIN.c    ****     PSC_ST_MAX
  31:PSC_MAIN.c    ****     
ARM GAS  C:\Users\youkan\AppData\Local\Temp\ccCY0cpc.s 			page 2


  32:PSC_MAIN.c    **** }PSC_STATE;
  33:PSC_MAIN.c    **** 
  34:PSC_MAIN.c    **** typedef enum PSC_INTR_STATEtag
  35:PSC_MAIN.c    **** {
  36:PSC_MAIN.c    ****     PSC_INTR_ST_SLEEP,
  37:PSC_MAIN.c    ****     PSC_INTR_ST_ACTIVE,
  38:PSC_MAIN.c    ****     PSC_INTR_ST_MAX
  39:PSC_MAIN.c    ****     
  40:PSC_MAIN.c    **** }PSC_INTR_STATE;
  41:PSC_MAIN.c    **** 
  42:PSC_MAIN.c    **** typedef struct PSC_ST_PROCtag
  43:PSC_MAIN.c    **** {
  44:PSC_MAIN.c    ****     PSC_RET     (*pfInit)();
  45:PSC_MAIN.c    ****     PSC_RET     (*pfProc)(PSC_ST_CMD*);
  46:PSC_MAIN.c    **** }PSC_ST_PROC;
  47:PSC_MAIN.c    **** 
  48:PSC_MAIN.c    **** 
  49:PSC_MAIN.c    **** //Prototypes
  50:PSC_MAIN.c    **** //-------------------------------------------------//
  51:PSC_MAIN.c    **** void PSC_PROGRAM_START();
  52:PSC_MAIN.c    **** PSC_RET psc_Main();
  53:PSC_MAIN.c    **** PSC_RET psc_Initialize();
  54:PSC_MAIN.c    **** 
  55:PSC_MAIN.c    **** PSC_RET psc_Main_Idle();
  56:PSC_MAIN.c    **** PSC_RET psc_Main_Run();
  57:PSC_MAIN.c    **** 
  58:PSC_MAIN.c    **** PSC_RET psc_CmdHandle();                   //CommandHandling
  59:PSC_MAIN.c    **** 
  60:PSC_MAIN.c    **** //Static
  61:PSC_MAIN.c    **** static PSC_STATE        svPSC_PROG_STATE;           //status
  62:PSC_MAIN.c    **** static PSC_INTR_STATE   svPSC_INTR_STATE;
  63:PSC_MAIN.c    **** static PSC_ST_CMD       sstPSC_COMMAND;
  64:PSC_MAIN.c    **** static PSC_RET          (*psfPSC_PROC)(PSC_ST_CMD*);
  65:PSC_MAIN.c    **** 
  66:PSC_MAIN.c    **** void PSC_PROGRAM_START()
  67:PSC_MAIN.c    **** {
  68:PSC_MAIN.c    ****     if( psc_Main() != PSC_RET_SUCCESS )
  69:PSC_MAIN.c    ****     {
  70:PSC_MAIN.c    ****         //FAITAL ERROR
  71:PSC_MAIN.c    ****         return;
  72:PSC_MAIN.c    ****     }
  73:PSC_MAIN.c    **** }
  74:PSC_MAIN.c    **** 
  75:PSC_MAIN.c    **** 
  76:PSC_MAIN.c    **** PSC_RET psc_Main()
  77:PSC_MAIN.c    **** {
  78:PSC_MAIN.c    ****     PSC_RET ret;
  79:PSC_MAIN.c    ****     ret = psc_Initialize();
  80:PSC_MAIN.c    ****     if( ret != PSC_RET_SUCCESS )
  81:PSC_MAIN.c    ****     {
  82:PSC_MAIN.c    ****         return ret;
  83:PSC_MAIN.c    ****     }
  84:PSC_MAIN.c    ****     
  85:PSC_MAIN.c    ****     while( 1 )
  86:PSC_MAIN.c    ****     {
  87:PSC_MAIN.c    ****         switch(svPSC_PROG_STATE)
  88:PSC_MAIN.c    ****         {
ARM GAS  C:\Users\youkan\AppData\Local\Temp\ccCY0cpc.s 			page 3


  89:PSC_MAIN.c    ****             case PSC_ST_IDLE:
  90:PSC_MAIN.c    ****                 /* DEBUG */
  91:PSC_MAIN.c    ****                 DBG_printf("TRACE PSC_ST_ILDE \n\r");
  92:PSC_MAIN.c    ****                 ret = psc_Main_Idle();
  93:PSC_MAIN.c    ****                 if( ret != PSC_RET_SUCCESS )
  94:PSC_MAIN.c    ****                 {
  95:PSC_MAIN.c    ****                     return ret;
  96:PSC_MAIN.c    ****                 }
  97:PSC_MAIN.c    ****                 break;
  98:PSC_MAIN.c    ****             case PSC_ST_RUN:
  99:PSC_MAIN.c    ****                 DBG_printf("TRACE PSC_ST_RUN \n\r");
 100:PSC_MAIN.c    ****                 ret = psc_Main_Run();
 101:PSC_MAIN.c    ****                 if( ret != PSC_RET_SUCCESS )
 102:PSC_MAIN.c    ****                 {
 103:PSC_MAIN.c    ****                     return ret;
 104:PSC_MAIN.c    ****                 }
 105:PSC_MAIN.c    ****                 break;
 106:PSC_MAIN.c    ****             default:
 107:PSC_MAIN.c    ****                 break;
 108:PSC_MAIN.c    ****         }
 109:PSC_MAIN.c    ****     }
 110:PSC_MAIN.c    **** 
 111:PSC_MAIN.c    ****     return PSC_RET_SUCCESS;
 112:PSC_MAIN.c    **** }
 113:PSC_MAIN.c    **** 
 114:PSC_MAIN.c    **** 
 115:PSC_MAIN.c    **** 
 116:PSC_MAIN.c    **** PSC_RET psc_Initialize()
 117:PSC_MAIN.c    **** {
  27              		.loc 1 117 0
  28              		.cfi_startproc
  29              		@ args = 0, pretend = 0, frame = 0
  30              		@ frame_needed = 0, uses_anonymous_args = 0
  31 0000 08B5     		push	{r3, lr}
  32              		.cfi_def_cfa_offset 8
  33              		.cfi_offset 3, -8
  34              		.cfi_offset 14, -4
 118:PSC_MAIN.c    ****     PSC_RET ret;
 119:PSC_MAIN.c    ****     DBG_Init();
  35              		.loc 1 119 0
  36 0002 FFF7FEFF 		bl	DBG_Init
  37              	.LVL0:
 120:PSC_MAIN.c    ****     ret = PSC_CMD_CREATE_CONTEXT(&sstPSC_COMMAND);
  38              		.loc 1 120 0
  39 0006 0848     		ldr	r0, .L6
  40 0008 FFF7FEFF 		bl	PSC_CMD_CREATE_CONTEXT
  41              	.LVL1:
 121:PSC_MAIN.c    ****     if( ret != PSC_RET_SUCCESS )
  42              		.loc 1 121 0
  43 000c 48B9     		cbnz	r0, .L3
 122:PSC_MAIN.c    ****     {
 123:PSC_MAIN.c    ****         //Create Context Error
 124:PSC_MAIN.c    ****         return ret;
 125:PSC_MAIN.c    ****     }
 126:PSC_MAIN.c    ****     
 127:PSC_MAIN.c    ****     ret = PSC_Comm_Initialize();
  44              		.loc 1 127 0
ARM GAS  C:\Users\youkan\AppData\Local\Temp\ccCY0cpc.s 			page 4


  45 000e FFF7FEFF 		bl	PSC_Comm_Initialize
  46              	.LVL2:
 128:PSC_MAIN.c    ****     if( ret != PSC_RET_SUCCESS )
  47              		.loc 1 128 0
  48 0012 38B9     		cbnz	r0, .L4
 129:PSC_MAIN.c    ****     {
 130:PSC_MAIN.c    ****         //Create Context Error
 131:PSC_MAIN.c    ****         return ret;
 132:PSC_MAIN.c    ****     }
 133:PSC_MAIN.c    ****     
 134:PSC_MAIN.c    ****     svPSC_PROG_STATE = PSC_ST_IDLE;
  49              		.loc 1 134 0
  50 0014 044B     		ldr	r3, .L6
  51 0016 83F83800 		strb	r0, [r3, #56]
 135:PSC_MAIN.c    ****     svPSC_INTR_STATE = PSC_INTR_ST_ACTIVE;
  52              		.loc 1 135 0
  53 001a 0122     		movs	r2, #1
  54 001c 83F83920 		strb	r2, [r3, #57]
 136:PSC_MAIN.c    ****     return PSC_RET_SUCCESS;
  55              		.loc 1 136 0
  56 0020 08BD     		pop	{r3, pc}
  57              	.L3:
  58 0022 08BD     		pop	{r3, pc}
  59              	.L4:
 137:PSC_MAIN.c    ****         
 138:PSC_MAIN.c    **** }
  60              		.loc 1 138 0
  61 0024 08BD     		pop	{r3, pc}
  62              	.L7:
  63 0026 00BF     		.align	2
  64              	.L6:
  65 0028 00000000 		.word	.LANCHOR0
  66              		.cfi_endproc
  67              	.LFE65:
  68              		.size	psc_Initialize, .-psc_Initialize
  69              		.section	.text.psc_CmdHandle,"ax",%progbits
  70              		.align	2
  71              		.global	psc_CmdHandle
  72              		.thumb
  73              		.thumb_func
  74              		.type	psc_CmdHandle, %function
  75              	psc_CmdHandle:
  76              	.LFB67:
 139:PSC_MAIN.c    **** 
 140:PSC_MAIN.c    **** 
 141:PSC_MAIN.c    **** 
 142:PSC_MAIN.c    **** PSC_RET psc_Main_Idle()
 143:PSC_MAIN.c    **** {
 144:PSC_MAIN.c    ****     PSC_RET ret;
 145:PSC_MAIN.c    ****     
 146:PSC_MAIN.c    ****     ret = PSC_CMD_SET_DEVICE_ID(&sstPSC_COMMAND,DEV_ID_COMM);
 147:PSC_MAIN.c    ****     if( ret != PSC_RET_SUCCESS )
 148:PSC_MAIN.c    ****     {
 149:PSC_MAIN.c    ****         return ret;
 150:PSC_MAIN.c    ****     }
 151:PSC_MAIN.c    ****     
 152:PSC_MAIN.c    ****     ret = PSC_Comm_GetCommand(&sstPSC_COMMAND);
ARM GAS  C:\Users\youkan\AppData\Local\Temp\ccCY0cpc.s 			page 5


 153:PSC_MAIN.c    ****     if( ret != PSC_RET_SUCCESS )
 154:PSC_MAIN.c    ****     {
 155:PSC_MAIN.c    ****         return ret;
 156:PSC_MAIN.c    ****     }
 157:PSC_MAIN.c    ****     
 158:PSC_MAIN.c    ****     svPSC_PROG_STATE = PSC_ST_RUN;
 159:PSC_MAIN.c    ****     
 160:PSC_MAIN.c    ****     ret = psc_CmdHandle();
 161:PSC_MAIN.c    ****     if( ret != PSC_RET_SUCCESS )
 162:PSC_MAIN.c    ****     {
 163:PSC_MAIN.c    ****         return ret;
 164:PSC_MAIN.c    ****     }
 165:PSC_MAIN.c    ****     return PSC_RET_SUCCESS;
 166:PSC_MAIN.c    **** }
 167:PSC_MAIN.c    **** 
 168:PSC_MAIN.c    **** PSC_RET psc_CmdHandle()
 169:PSC_MAIN.c    **** {
  77              		.loc 1 169 0
  78              		.cfi_startproc
  79              		@ args = 0, pretend = 0, frame = 8
  80              		@ frame_needed = 0, uses_anonymous_args = 0
  81 0000 00B5     		push	{lr}
  82              		.cfi_def_cfa_offset 4
  83              		.cfi_offset 14, -4
  84 0002 83B0     		sub	sp, sp, #12
  85              		.cfi_def_cfa_offset 16
 170:PSC_MAIN.c    ****     PSC_RET ret;
 171:PSC_MAIN.c    ****     PSC_COMMAND cmd;
 172:PSC_MAIN.c    ****     
 173:PSC_MAIN.c    ****     ret = PSC_CMD_GET_COMMAND(&sstPSC_COMMAND,&cmd);
  86              		.loc 1 173 0
  87 0004 0D48     		ldr	r0, .L17
  88 0006 01A9     		add	r1, sp, #4
  89 0008 FFF7FEFF 		bl	PSC_CMD_GET_COMMAND
  90              	.LVL3:
 174:PSC_MAIN.c    ****     if( ret != PSC_RET_SUCCESS )
  91              		.loc 1 174 0
  92 000c 78B9     		cbnz	r0, .L12
 175:PSC_MAIN.c    ****     {
 176:PSC_MAIN.c    ****         return ret;
 177:PSC_MAIN.c    ****     }
 178:PSC_MAIN.c    ****     
 179:PSC_MAIN.c    ****     switch( cmd )
  93              		.loc 1 179 0
  94 000e 019B     		ldr	r3, [sp, #4]
  95 0010 012B     		cmp	r3, #1
  96 0012 02D0     		beq	.L11
  97 0014 022B     		cmp	r3, #2
  98 0016 0BD0     		beq	.L13
  99 0018 04E0     		b	.L15
 100              	.L11:
 180:PSC_MAIN.c    ****     {
 181:PSC_MAIN.c    ****         case COMM_REQ_CAMERASHOT:
 182:PSC_MAIN.c    ****             ret = PSC_Proc_CameraShot_Init(&psfPSC_PROC);
 101              		.loc 1 182 0
 102 001a 0948     		ldr	r0, .L17+4
 103              	.LVL4:
ARM GAS  C:\Users\youkan\AppData\Local\Temp\ccCY0cpc.s 			page 6


 104 001c FFF7FEFF 		bl	PSC_Proc_CameraShot_Init
 105              	.LVL5:
 183:PSC_MAIN.c    ****             if( ret != PSC_RET_SUCCESS )
 106              		.loc 1 183 0
 107 0020 40B9     		cbnz	r0, .L14
 108 0022 07E0     		b	.L9
 109              	.L15:
 184:PSC_MAIN.c    ****             {
 185:PSC_MAIN.c    ****                 return ret;
 186:PSC_MAIN.c    ****             }
 187:PSC_MAIN.c    ****             break;
 188:PSC_MAIN.c    ****         case COMM_REQ_DOWNLOAD_FILE:
 189:PSC_MAIN.c    ****             break;
 190:PSC_MAIN.c    ****         default:
 191:PSC_MAIN.c    ****             svPSC_PROG_STATE = PSC_ST_IDLE;
 110              		.loc 1 191 0
 111 0024 0020     		movs	r0, #0
 112              	.LVL6:
 113 0026 054B     		ldr	r3, .L17
 114 0028 83F83800 		strb	r0, [r3, #56]
 192:PSC_MAIN.c    ****             break;
 115              		.loc 1 192 0
 116 002c 02E0     		b	.L9
 117              	.LVL7:
 118              	.L12:
 119 002e 01E0     		b	.L9
 120              	.L13:
 193:PSC_MAIN.c    ****     }
 194:PSC_MAIN.c    ****     return PSC_RET_SUCCESS;
 121              		.loc 1 194 0
 122 0030 0020     		movs	r0, #0
 123              	.LVL8:
 124 0032 FFE7     		b	.L9
 125              	.LVL9:
 126              	.L14:
 127              	.L9:
 195:PSC_MAIN.c    **** }
 128              		.loc 1 195 0
 129 0034 03B0     		add	sp, sp, #12
 130              		.cfi_def_cfa_offset 4
 131              		@ sp needed
 132 0036 5DF804FB 		ldr	pc, [sp], #4
 133              	.L18:
 134 003a 00BF     		.align	2
 135              	.L17:
 136 003c 00000000 		.word	.LANCHOR0
 137 0040 3C000000 		.word	.LANCHOR0+60
 138              		.cfi_endproc
 139              	.LFE67:
 140              		.size	psc_CmdHandle, .-psc_CmdHandle
 141              		.section	.text.psc_Main_Idle,"ax",%progbits
 142              		.align	2
 143              		.global	psc_Main_Idle
 144              		.thumb
 145              		.thumb_func
 146              		.type	psc_Main_Idle, %function
 147              	psc_Main_Idle:
ARM GAS  C:\Users\youkan\AppData\Local\Temp\ccCY0cpc.s 			page 7


 148              	.LFB66:
 143:PSC_MAIN.c    ****     PSC_RET ret;
 149              		.loc 1 143 0
 150              		.cfi_startproc
 151              		@ args = 0, pretend = 0, frame = 0
 152              		@ frame_needed = 0, uses_anonymous_args = 0
 153 0000 08B5     		push	{r3, lr}
 154              		.cfi_def_cfa_offset 8
 155              		.cfi_offset 3, -8
 156              		.cfi_offset 14, -4
 146:PSC_MAIN.c    ****     if( ret != PSC_RET_SUCCESS )
 157              		.loc 1 146 0
 158 0002 0A48     		ldr	r0, .L25
 159 0004 0021     		movs	r1, #0
 160 0006 FFF7FEFF 		bl	PSC_CMD_SET_DEVICE_ID
 161              	.LVL10:
 147:PSC_MAIN.c    ****     {
 162              		.loc 1 147 0
 163 000a 58B9     		cbnz	r0, .L21
 152:PSC_MAIN.c    ****     if( ret != PSC_RET_SUCCESS )
 164              		.loc 1 152 0
 165 000c 0748     		ldr	r0, .L25
 166              	.LVL11:
 167 000e FFF7FEFF 		bl	PSC_Comm_GetCommand
 168              	.LVL12:
 153:PSC_MAIN.c    ****     {
 169              		.loc 1 153 0
 170 0012 40B9     		cbnz	r0, .L22
 158:PSC_MAIN.c    ****     
 171              		.loc 1 158 0
 172 0014 0122     		movs	r2, #1
 173 0016 054B     		ldr	r3, .L25
 174 0018 83F83820 		strb	r2, [r3, #56]
 160:PSC_MAIN.c    ****     if( ret != PSC_RET_SUCCESS )
 175              		.loc 1 160 0
 176 001c FFF7FEFF 		bl	psc_CmdHandle
 177              	.LVL13:
 161:PSC_MAIN.c    ****     {
 178              		.loc 1 161 0
 179 0020 10B9     		cbnz	r0, .L23
 180 0022 08BD     		pop	{r3, pc}
 181              	.L21:
 182 0024 08BD     		pop	{r3, pc}
 183              	.L22:
 184 0026 08BD     		pop	{r3, pc}
 185              	.L23:
 166:PSC_MAIN.c    **** 
 186              		.loc 1 166 0
 187 0028 08BD     		pop	{r3, pc}
 188              	.L26:
 189 002a 00BF     		.align	2
 190              	.L25:
 191 002c 00000000 		.word	.LANCHOR0
 192              		.cfi_endproc
 193              	.LFE66:
 194              		.size	psc_Main_Idle, .-psc_Main_Idle
 195              		.section	.text.psc_Main_Run,"ax",%progbits
ARM GAS  C:\Users\youkan\AppData\Local\Temp\ccCY0cpc.s 			page 8


 196              		.align	2
 197              		.global	psc_Main_Run
 198              		.thumb
 199              		.thumb_func
 200              		.type	psc_Main_Run, %function
 201              	psc_Main_Run:
 202              	.LFB68:
 196:PSC_MAIN.c    **** 
 197:PSC_MAIN.c    **** 
 198:PSC_MAIN.c    **** 
 199:PSC_MAIN.c    **** PSC_RET psc_Main_Run()
 200:PSC_MAIN.c    **** {
 203              		.loc 1 200 0
 204              		.cfi_startproc
 205              		@ args = 0, pretend = 0, frame = 0
 206              		@ frame_needed = 0, uses_anonymous_args = 0
 207 0000 08B5     		push	{r3, lr}
 208              		.cfi_def_cfa_offset 8
 209              		.cfi_offset 3, -8
 210              		.cfi_offset 14, -4
 201:PSC_MAIN.c    ****     PSC_RET ret;
 202:PSC_MAIN.c    **** 
 203:PSC_MAIN.c    ****     
 204:PSC_MAIN.c    ****     if( psfPSC_PROC == null )
 211              		.loc 1 204 0
 212 0002 0A4B     		ldr	r3, .L33
 213 0004 DB6B     		ldr	r3, [r3, #60]
 214 0006 5BB1     		cbz	r3, .L29
 205:PSC_MAIN.c    ****     {
 206:PSC_MAIN.c    ****         return PSC_RET_SUCCESS;
 207:PSC_MAIN.c    ****     }
 208:PSC_MAIN.c    ****     
 209:PSC_MAIN.c    ****     ret = psfPSC_PROC(&sstPSC_COMMAND);
 215              		.loc 1 209 0
 216 0008 0848     		ldr	r0, .L33
 217 000a 9847     		blx	r3
 218              	.LVL14:
 210:PSC_MAIN.c    ****     if( ret != PSC_RET_SUCCESS )
 219              		.loc 1 210 0
 220 000c 50B9     		cbnz	r0, .L30
 211:PSC_MAIN.c    ****     {
 212:PSC_MAIN.c    ****         return ret;
 213:PSC_MAIN.c    ****     }
 214:PSC_MAIN.c    ****     
 215:PSC_MAIN.c    ****     if( gsvPSC_PROC_STATE == PSC_PROC_SLEEP )
 221              		.loc 1 215 0
 222 000e 084B     		ldr	r3, .L33+4
 223 0010 1B78     		ldrb	r3, [r3]	@ zero_extendqisi2
 224 0012 012B     		cmp	r3, #1
 225 0014 07D1     		bne	.L31
 216:PSC_MAIN.c    ****     {
 217:PSC_MAIN.c    ****         psfPSC_PROC = null;
 226              		.loc 1 217 0
 227 0016 054B     		ldr	r3, .L33
 228 0018 D863     		str	r0, [r3, #60]
 218:PSC_MAIN.c    ****         svPSC_PROG_STATE = PSC_ST_IDLE;
 229              		.loc 1 218 0
ARM GAS  C:\Users\youkan\AppData\Local\Temp\ccCY0cpc.s 			page 9


 230 001a 83F83800 		strb	r0, [r3, #56]
 219:PSC_MAIN.c    ****         return PSC_RET_SUCCESS;
 231              		.loc 1 219 0
 232 001e 08BD     		pop	{r3, pc}
 233              	.LVL15:
 234              	.L29:
 206:PSC_MAIN.c    ****     }
 235              		.loc 1 206 0
 236 0020 0020     		movs	r0, #0
 237 0022 08BD     		pop	{r3, pc}
 238              	.LVL16:
 239              	.L30:
 240 0024 08BD     		pop	{r3, pc}
 241              	.L31:
 220:PSC_MAIN.c    ****     }
 221:PSC_MAIN.c    ****     
 222:PSC_MAIN.c    **** //    ret = PSC_Comm_GetCommand(&sstPSC_COMMAND);
 223:PSC_MAIN.c    **** //    if( ret != PSC_RET_SUCCESS )
 224:PSC_MAIN.c    **** //    {
 225:PSC_MAIN.c    **** //        return ret;
 226:PSC_MAIN.c    **** //    }
 227:PSC_MAIN.c    ****     
 228:PSC_MAIN.c    ****     return PSC_RET_SUCCESS;
 242              		.loc 1 228 0
 243 0026 0020     		movs	r0, #0
 244              	.LVL17:
 229:PSC_MAIN.c    **** }...
 245              		.loc 1 229 0
 246 0028 08BD     		pop	{r3, pc}
 247              	.L34:
 248 002a 00BF     		.align	2
 249              	.L33:
 250 002c 00000000 		.word	.LANCHOR0
 251 0030 00000000 		.word	gsvPSC_PROC_STATE
 252              		.cfi_endproc
 253              	.LFE68:
 254              		.size	psc_Main_Run, .-psc_Main_Run
 255              		.section	.text.psc_Main,"ax",%progbits
 256              		.align	2
 257              		.global	psc_Main
 258              		.thumb
 259              		.thumb_func
 260              		.type	psc_Main, %function
 261              	psc_Main:
 262              	.LFB64:
  77:PSC_MAIN.c    **** {
 263              		.loc 1 77 0
 264              		.cfi_startproc
 265              		@ args = 0, pretend = 0, frame = 0
 266              		@ frame_needed = 0, uses_anonymous_args = 0
 267 0000 08B5     		push	{r3, lr}
 268              		.cfi_def_cfa_offset 8
 269              		.cfi_offset 3, -8
 270              		.cfi_offset 14, -4
  79:PSC_MAIN.c    ****     ret = psc_Initialize();
 271              		.loc 1 79 0
 272 0002 FFF7FEFF 		bl	psc_Initialize
ARM GAS  C:\Users\youkan\AppData\Local\Temp\ccCY0cpc.s 			page 10


 273              	.LVL18:
  80:PSC_MAIN.c    ****     if( ret != PSC_RET_SUCCESS )
 274              		.loc 1 80 0
 275 0006 B0B9     		cbnz	r0, .L42
 276              	.L38:
  87:PSC_MAIN.c    ****         switch(svPSC_PROG_STATE)
 277              		.loc 1 87 0
 278 0008 0B4B     		ldr	r3, .L44
 279 000a 93F83830 		ldrb	r3, [r3, #56]	@ zero_extendqisi2
 280 000e 13B1     		cbz	r3, .L39
 281 0010 012B     		cmp	r3, #1
 282 0012 08D0     		beq	.L40
 283 0014 F8E7     		b	.L38
 284              	.L39:
  91:PSC_MAIN.c    ****                 DBG_printf("TRACE PSC_ST_ILDE \n\r");
 285              		.loc 1 91 0
 286 0016 0948     		ldr	r0, .L44+4
 287              	.LVL19:
 288 0018 FFF7FEFF 		bl	DBG_printf
 289              	.LVL20:
  92:PSC_MAIN.c    ****                 ret = psc_Main_Idle();
 290              		.loc 1 92 0
 291 001c FFF7FEFF 		bl	psc_Main_Idle
 292              	.LVL21:
  93:PSC_MAIN.c    ****                 if( ret != PSC_RET_SUCCESS )
 293              		.loc 1 93 0
 294 0020 0028     		cmp	r0, #0
 295 0022 F1D0     		beq	.L38
  95:PSC_MAIN.c    ****                     return ret;
 296              		.loc 1 95 0
 297 0024 08BD     		pop	{r3, pc}
 298              	.L40:
  99:PSC_MAIN.c    ****                 DBG_printf("TRACE PSC_ST_RUN \n\r");
 299              		.loc 1 99 0
 300 0026 0648     		ldr	r0, .L44+8
 301              	.LVL22:
 302 0028 FFF7FEFF 		bl	DBG_printf
 303              	.LVL23:
 100:PSC_MAIN.c    ****                 ret = psc_Main_Run();
 304              		.loc 1 100 0
 305 002c FFF7FEFF 		bl	psc_Main_Run
 306              	.LVL24:
 101:PSC_MAIN.c    ****                 if( ret != PSC_RET_SUCCESS )
 307              		.loc 1 101 0
 308 0030 0028     		cmp	r0, #0
 309 0032 E9D0     		beq	.L38
 103:PSC_MAIN.c    ****                     return ret;
 310              		.loc 1 103 0
 311 0034 08BD     		pop	{r3, pc}
 312              	.L42:
 112:PSC_MAIN.c    **** }
 313              		.loc 1 112 0
 314 0036 08BD     		pop	{r3, pc}
 315              	.L45:
 316              		.align	2
 317              	.L44:
 318 0038 00000000 		.word	.LANCHOR0
ARM GAS  C:\Users\youkan\AppData\Local\Temp\ccCY0cpc.s 			page 11


 319 003c 00000000 		.word	.LC0
 320 0040 18000000 		.word	.LC1
 321              		.cfi_endproc
 322              	.LFE64:
 323              		.size	psc_Main, .-psc_Main
 324              		.section	.text.PSC_PROGRAM_START,"ax",%progbits
 325              		.align	2
 326              		.global	PSC_PROGRAM_START
 327              		.thumb
 328              		.thumb_func
 329              		.type	PSC_PROGRAM_START, %function
 330              	PSC_PROGRAM_START:
 331              	.LFB63:
  67:PSC_MAIN.c    **** {
 332              		.loc 1 67 0
 333              		.cfi_startproc
 334              		@ args = 0, pretend = 0, frame = 0
 335              		@ frame_needed = 0, uses_anonymous_args = 0
 336 0000 08B5     		push	{r3, lr}
 337              		.cfi_def_cfa_offset 8
 338              		.cfi_offset 3, -8
 339              		.cfi_offset 14, -4
  68:PSC_MAIN.c    ****     if( psc_Main() != PSC_RET_SUCCESS )
 340              		.loc 1 68 0
 341 0002 FFF7FEFF 		bl	psc_Main
 342              	.LVL25:
 343 0006 08BD     		pop	{r3, pc}
 344              		.cfi_endproc
 345              	.LFE63:
 346              		.size	PSC_PROGRAM_START, .-PSC_PROGRAM_START
 347              		.section	.rodata.str1.4,"aMS",%progbits,1
 348              		.align	2
 349              	.LC0:
 350 0000 54524143 		.ascii	"TRACE PSC_ST_ILDE \012\015\000"
 350      45205053 
 350      435F5354 
 350      5F494C44 
 350      45200A0D 
 351 0015 000000   		.space	3
 352              	.LC1:
 353 0018 54524143 		.ascii	"TRACE PSC_ST_RUN \012\015\000"
 353      45205053 
 353      435F5354 
 353      5F52554E 
 353      200A0D00 
 354              		.bss
 355              		.align	2
 356              		.set	.LANCHOR0,. + 0
 357              		.type	sstPSC_COMMAND, %object
 358              		.size	sstPSC_COMMAND, 56
 359              	sstPSC_COMMAND:
 360 0000 00000000 		.space	56
 360      00000000 
 360      00000000 
 360      00000000 
 360      00000000 
 361              		.type	svPSC_PROG_STATE, %object
ARM GAS  C:\Users\youkan\AppData\Local\Temp\ccCY0cpc.s 			page 12


 362              		.size	svPSC_PROG_STATE, 1
 363              	svPSC_PROG_STATE:
 364 0038 00       		.space	1
 365              		.type	svPSC_INTR_STATE, %object
 366              		.size	svPSC_INTR_STATE, 1
 367              	svPSC_INTR_STATE:
 368 0039 00       		.space	1
 369 003a 0000     		.space	2
 370              		.type	psfPSC_PROC, %object
 371              		.size	psfPSC_PROC, 4
 372              	psfPSC_PROC:
 373 003c 00000000 		.space	4
 374              		.text
 375              	.Letext0:
 376              		.file 2 "PSC_Types.h"
 377              		.file 3 "PSC_CMD_API.h"
 378              		.file 4 "c:\\program files (x86)\\cypress\\psoc creator\\4.0\\psoc creator\\import\\gnu\\arm\\4.9.
 379              		.file 5 "c:\\program files (x86)\\cypress\\psoc creator\\4.0\\psoc creator\\import\\gnu\\arm\\4.9.
 380              		.file 6 "PSC_Proc_Common.h"
 381              		.file 7 "Generated_Source\\PSoC5/core_cm3.h"
 382              		.file 8 "PSC_Proc_CameraShot.h"
 383              		.file 9 "PSC_Communicate.h"
 384              		.file 10 "Debugs.h"