ARM GAS  C:\Users\youkan\AppData\Local\Temp\ccodd5Kf.s 			page 1


   1              		.syntax unified
   2              		.cpu cortex-m3
   3              		.fpu softvfp
   4              		.eabi_attribute 20, 1
   5              		.eabi_attribute 21, 1
   6              		.eabi_attribute 23, 3
   7              		.eabi_attribute 24, 1
   8              		.eabi_attribute 25, 1
   9              		.eabi_attribute 26, 1
  10              		.eabi_attribute 30, 1
  11              		.eabi_attribute 34, 1
  12              		.eabi_attribute 18, 4
  13              		.thumb
  14              		.file	"PSC_Communicate.c"
  15              		.text
  16              	.Ltext0:
  17              		.cfi_sections	.debug_frame
  18              		.section	.text.PSC_Comm_Initialize,"ax",%progbits
  19              		.align	2
  20              		.global	PSC_Comm_Initialize
  21              		.thumb
  22              		.thumb_func
  23              		.type	PSC_Comm_Initialize, %function
  24              	PSC_Comm_Initialize:
  25              	.LFB63:
  26              		.file 1 "PSC_Communicate.c"
   1:PSC_Communicate.c **** /* ========================================
   2:PSC_Communicate.c ****  *
   3:PSC_Communicate.c ****  * Copyright YOUR COMPANY, THE YEAR
   4:PSC_Communicate.c ****  * All Rights Reserved
   5:PSC_Communicate.c ****  * UNPUBLISHED, LICENSED SOFTWARE.
   6:PSC_Communicate.c ****  *
   7:PSC_Communicate.c ****  * CONFIDENTIAL AND PROPRIETARY INFORMATION
   8:PSC_Communicate.c ****  * WHICH IS THE PROPERTY OF your company.
   9:PSC_Communicate.c ****  *
  10:PSC_Communicate.c ****  * ========================================
  11:PSC_Communicate.c **** */
  12:PSC_Communicate.c **** 
  13:PSC_Communicate.c **** /* [] END OF FILE */
  14:PSC_Communicate.c **** 
  15:PSC_Communicate.c **** #include <stdio.h>
  16:PSC_Communicate.c **** #include <stdbool.h>
  17:PSC_Communicate.c **** #include "PSC_Types.h"
  18:PSC_Communicate.c **** #include "project.h"
  19:PSC_Communicate.c **** #include "PSC_CMD_API.h"
  20:PSC_Communicate.c **** #include "PSC_Communicate.h"
  21:PSC_Communicate.c **** #include "Debugs.h"
  22:PSC_Communicate.c **** 
  23:PSC_Communicate.c **** 
  24:PSC_Communicate.c **** 
  25:PSC_Communicate.c **** PSC_RET PSC_Comm_Initialize();
  26:PSC_Communicate.c **** PSC_RET PSC_Comm_GetCommand(PSC_ST_CMD*);    //Get Command form Device
  27:PSC_Communicate.c **** PSC_RET PSC_Comm_SndCommand(DEV_ID,PSC_CHAR [],uint8);    //Send Command to Device
  28:PSC_Communicate.c **** PSC_RET psc_Comm_GetRecvLine(PSC_ST_CMD*);
  29:PSC_Communicate.c **** PSC_RET psc_Comm_GetRecvChar(DEV_ID,PSC_CHAR*);
  30:PSC_Communicate.c **** PSC_RET psc_Comm_SndDataLine(PSC_ST_CMD*);
  31:PSC_Communicate.c **** 
ARM GAS  C:\Users\youkan\AppData\Local\Temp\ccodd5Kf.s 			page 2


  32:PSC_Communicate.c **** PSC_RET PSC_Comm_Initialize()
  33:PSC_Communicate.c **** {
  27              		.loc 1 33 0
  28              		.cfi_startproc
  29              		@ args = 0, pretend = 0, frame = 0
  30              		@ frame_needed = 0, uses_anonymous_args = 0
  31 0000 08B5     		push	{r3, lr}
  32              		.cfi_def_cfa_offset 8
  33              		.cfi_offset 3, -8
  34              		.cfi_offset 14, -4
  34:PSC_Communicate.c ****     UART_TO_COMM_Init();
  35              		.loc 1 34 0
  36 0002 FFF7FEFF 		bl	UART_TO_COMM_Init
  37              	.LVL0:
  35:PSC_Communicate.c ****     UART_TO_COMM_Start();
  38              		.loc 1 35 0
  39 0006 FFF7FEFF 		bl	UART_TO_COMM_Start
  40              	.LVL1:
  36:PSC_Communicate.c ****     
  37:PSC_Communicate.c ****     UART_TO_CAMERA_Init();
  41              		.loc 1 37 0
  42 000a FFF7FEFF 		bl	UART_TO_CAMERA_Init
  43              	.LVL2:
  38:PSC_Communicate.c ****     UART_TO_CAMERA_Start();
  44              		.loc 1 38 0
  45 000e FFF7FEFF 		bl	UART_TO_CAMERA_Start
  46              	.LVL3:
  39:PSC_Communicate.c ****     
  40:PSC_Communicate.c ****     return PSC_RET_SUCCESS;
  41:PSC_Communicate.c **** }
  47              		.loc 1 41 0
  48 0012 0020     		movs	r0, #0
  49 0014 08BD     		pop	{r3, pc}
  50              		.cfi_endproc
  51              	.LFE63:
  52              		.size	PSC_Comm_Initialize, .-PSC_Comm_Initialize
  53 0016 00BF     		.section	.text.psc_Comm_GetRecvChar,"ax",%progbits
  54              		.align	2
  55              		.global	psc_Comm_GetRecvChar
  56              		.thumb
  57              		.thumb_func
  58              		.type	psc_Comm_GetRecvChar, %function
  59              	psc_Comm_GetRecvChar:
  60              	.LFB66:
  42:PSC_Communicate.c **** 
  43:PSC_Communicate.c **** PSC_RET PSC_Comm_GetCommand(PSC_ST_CMD* pstData)
  44:PSC_Communicate.c **** {
  45:PSC_Communicate.c ****     PSC_RET ret;
  46:PSC_Communicate.c ****     
  47:PSC_Communicate.c ****     ret = psc_Comm_GetRecvLine(pstData);
  48:PSC_Communicate.c ****     if( ret != PSC_RET_SUCCESS )
  49:PSC_Communicate.c ****     {
  50:PSC_Communicate.c ****         return ret;
  51:PSC_Communicate.c ****     }
  52:PSC_Communicate.c ****     
  53:PSC_Communicate.c ****     return PSC_RET_SUCCESS;
  54:PSC_Communicate.c **** }
ARM GAS  C:\Users\youkan\AppData\Local\Temp\ccodd5Kf.s 			page 3


  55:PSC_Communicate.c **** 
  56:PSC_Communicate.c **** 
  57:PSC_Communicate.c **** PSC_RET psc_Comm_GetRecvLine(PSC_ST_CMD* pstData)
  58:PSC_Communicate.c **** {
  59:PSC_Communicate.c ****     PSC_RET ret;
  60:PSC_Communicate.c ****     PSC_CHAR recv_data;
  61:PSC_Communicate.c **** 
  62:PSC_Communicate.c ****     ret = PSC_CMD_RECV_SETUP(pstData);
  63:PSC_Communicate.c ****     if( ret != PSC_RET_SUCCESS )
  64:PSC_Communicate.c ****     {
  65:PSC_Communicate.c ****         return ret;
  66:PSC_Communicate.c ****     }
  67:PSC_Communicate.c ****     /* Debug */
  68:PSC_Communicate.c ****     DBG_printf("TRACE Start Get Command \n\r");
  69:PSC_Communicate.c ****     while(1)
  70:PSC_Communicate.c ****     {   
  71:PSC_Communicate.c ****         ret = psc_Comm_GetRecvChar(pstData->dev_id,&recv_data);
  72:PSC_Communicate.c ****         if( ret != PSC_RET_SUCCESS )
  73:PSC_Communicate.c ****         {
  74:PSC_Communicate.c ****             return ret;
  75:PSC_Communicate.c ****         }
  76:PSC_Communicate.c ****         
  77:PSC_Communicate.c ****         ret = PSC_CMD_SET_RECV_DATA(pstData,&recv_data);
  78:PSC_Communicate.c ****         if( ret != PSC_RET_SUCCESS )
  79:PSC_Communicate.c ****         {
  80:PSC_Communicate.c ****             return ret;
  81:PSC_Communicate.c ****         }
  82:PSC_Communicate.c ****         
  83:PSC_Communicate.c ****         if(PSC_CMD_GET_RCV_STATE() == PSC_CMD_RCV_ST_COMPLETE)
  84:PSC_Communicate.c ****         {
  85:PSC_Communicate.c ****             break;
  86:PSC_Communicate.c ****         }
  87:PSC_Communicate.c ****     }
  88:PSC_Communicate.c ****     /* Debug */
  89:PSC_Communicate.c ****     DBG_printf("TRACE Complete Get Command \n\r");
  90:PSC_Communicate.c ****     ret = PSC_CMD_PARSE_COMMAND(pstData);
  91:PSC_Communicate.c ****     if( ret != PSC_RET_SUCCESS )
  92:PSC_Communicate.c ****     {
  93:PSC_Communicate.c ****         return ret;
  94:PSC_Communicate.c ****     }
  95:PSC_Communicate.c ****     
  96:PSC_Communicate.c **** 
  97:PSC_Communicate.c **** 
  98:PSC_Communicate.c ****     return PSC_RET_SUCCESS;
  99:PSC_Communicate.c **** }
 100:PSC_Communicate.c **** 
 101:PSC_Communicate.c **** 
 102:PSC_Communicate.c **** PSC_RET psc_Comm_GetRecvChar(DEV_ID dev_id,PSC_CHAR* pvData)
 103:PSC_Communicate.c **** {
  61              		.loc 1 103 0
  62              		.cfi_startproc
  63              		@ args = 0, pretend = 0, frame = 0
  64              		@ frame_needed = 0, uses_anonymous_args = 0
  65              	.LVL4:
  66 0000 10B5     		push	{r4, lr}
  67              		.cfi_def_cfa_offset 8
  68              		.cfi_offset 4, -8
ARM GAS  C:\Users\youkan\AppData\Local\Temp\ccodd5Kf.s 			page 4


  69              		.cfi_offset 14, -4
  70 0002 0C46     		mov	r4, r1
 104:PSC_Communicate.c ****     PSC_CHAR    tmpData;
 105:PSC_Communicate.c ****     int         i;
 106:PSC_Communicate.c ****     
 107:PSC_Communicate.c ****     switch(dev_id)
  71              		.loc 1 107 0
  72 0004 28B1     		cbz	r0, .L5
  73 0006 0128     		cmp	r0, #1
  74 0008 06D1     		bne	.L4
 108:PSC_Communicate.c ****     {
 109:PSC_Communicate.c ****         case DEV_ID_CAM:
 110:PSC_Communicate.c ****             tmpData = UART_TO_CAMERA_GetChar();
  75              		.loc 1 110 0
  76 000a FFF7FEFF 		bl	UART_TO_CAMERA_GetChar
  77              	.LVL5:
  78 000e 0246     		mov	r2, r0
  79              	.LVL6:
 111:PSC_Communicate.c ****             break;
  80              		.loc 1 111 0
  81 0010 02E0     		b	.L4
  82              	.LVL7:
  83              	.L5:
 112:PSC_Communicate.c ****         case DEV_ID_COMM:
 113:PSC_Communicate.c ****             tmpData = UART_TO_COMM_GetChar();
  84              		.loc 1 113 0
  85 0012 FFF7FEFF 		bl	UART_TO_COMM_GetChar
  86              	.LVL8:
  87 0016 0246     		mov	r2, r0
  88              	.LVL9:
  89              	.L4:
 114:PSC_Communicate.c ****         default:
 115:PSC_Communicate.c ****             break;
 116:PSC_Communicate.c ****     }
 117:PSC_Communicate.c ****     
 118:PSC_Communicate.c ****     *pvData = tmpData;
  90              		.loc 1 118 0
  91 0018 2270     		strb	r2, [r4]
 119:PSC_Communicate.c ****     return PSC_RET_SUCCESS;
 120:PSC_Communicate.c **** }
  92              		.loc 1 120 0
  93 001a 0020     		movs	r0, #0
  94 001c 10BD     		pop	{r4, pc}
  95              		.cfi_endproc
  96              	.LFE66:
  97              		.size	psc_Comm_GetRecvChar, .-psc_Comm_GetRecvChar
  98 001e 00BF     		.section	.text.psc_Comm_GetRecvLine,"ax",%progbits
  99              		.align	2
 100              		.global	psc_Comm_GetRecvLine
 101              		.thumb
 102              		.thumb_func
 103              		.type	psc_Comm_GetRecvLine, %function
 104              	psc_Comm_GetRecvLine:
 105              	.LFB65:
  58:PSC_Communicate.c ****     PSC_RET ret;
 106              		.loc 1 58 0
 107              		.cfi_startproc
ARM GAS  C:\Users\youkan\AppData\Local\Temp\ccodd5Kf.s 			page 5


 108              		@ args = 0, pretend = 0, frame = 8
 109              		@ frame_needed = 0, uses_anonymous_args = 0
 110              	.LVL10:
 111 0000 10B5     		push	{r4, lr}
 112              		.cfi_def_cfa_offset 8
 113              		.cfi_offset 4, -8
 114              		.cfi_offset 14, -4
 115 0002 82B0     		sub	sp, sp, #8
 116              		.cfi_def_cfa_offset 16
 117 0004 0446     		mov	r4, r0
  62:PSC_Communicate.c ****     if( ret != PSC_RET_SUCCESS )
 118              		.loc 1 62 0
 119 0006 FFF7FEFF 		bl	PSC_CMD_RECV_SETUP
 120              	.LVL11:
  63:PSC_Communicate.c ****     {
 121              		.loc 1 63 0
 122 000a E0B9     		cbnz	r0, .L13
  68:PSC_Communicate.c ****     while(1)
 123              		.loc 1 68 0
 124 000c 0F48     		ldr	r0, .L16
 125              	.LVL12:
 126 000e FFF7FEFF 		bl	DBG_printf
 127              	.LVL13:
 128              	.L12:
  71:PSC_Communicate.c ****         if( ret != PSC_RET_SUCCESS )
 129              		.loc 1 71 0
 130 0012 2078     		ldrb	r0, [r4]	@ zero_extendqisi2
 131 0014 0DF10701 		add	r1, sp, #7
 132 0018 FFF7FEFF 		bl	psc_Comm_GetRecvChar
 133              	.LVL14:
  72:PSC_Communicate.c ****         {
 134              		.loc 1 72 0
 135 001c 00B1     		cbz	r0, .L10
  74:PSC_Communicate.c ****         }
 136              		.loc 1 74 0
 137 001e 13E0     		b	.L9
 138              	.L10:
  77:PSC_Communicate.c ****         if( ret != PSC_RET_SUCCESS )
 139              		.loc 1 77 0
 140 0020 2046     		mov	r0, r4
 141              	.LVL15:
 142 0022 0DF10701 		add	r1, sp, #7
 143 0026 FFF7FEFF 		bl	PSC_CMD_SET_RECV_DATA
 144              	.LVL16:
  78:PSC_Communicate.c ****         {
 145              		.loc 1 78 0
 146 002a 00B1     		cbz	r0, .L11
  80:PSC_Communicate.c ****         }
 147              		.loc 1 80 0
 148 002c 0CE0     		b	.L9
 149              	.L11:
  83:PSC_Communicate.c ****         {
 150              		.loc 1 83 0
 151 002e FFF7FEFF 		bl	PSC_CMD_GET_RCV_STATE
 152              	.LVL17:
 153 0032 0428     		cmp	r0, #4
 154 0034 EDD1     		bne	.L12
ARM GAS  C:\Users\youkan\AppData\Local\Temp\ccodd5Kf.s 			page 6


  89:PSC_Communicate.c ****     ret = PSC_CMD_PARSE_COMMAND(pstData);
 155              		.loc 1 89 0
 156 0036 0648     		ldr	r0, .L16+4
 157 0038 FFF7FEFF 		bl	DBG_printf
 158              	.LVL18:
  90:PSC_Communicate.c ****     if( ret != PSC_RET_SUCCESS )
 159              		.loc 1 90 0
 160 003c 2046     		mov	r0, r4
 161 003e FFF7FEFF 		bl	PSC_CMD_PARSE_COMMAND
 162              	.LVL19:
  91:PSC_Communicate.c ****     {
 163              		.loc 1 91 0
 164 0042 08B9     		cbnz	r0, .L14
 165 0044 00E0     		b	.L9
 166              	.L13:
 167 0046 FFE7     		b	.L9
 168              	.L14:
 169              	.L9:
  99:PSC_Communicate.c **** 
 170              		.loc 1 99 0
 171 0048 02B0     		add	sp, sp, #8
 172              		.cfi_def_cfa_offset 8
 173              		@ sp needed
 174 004a 10BD     		pop	{r4, pc}
 175              	.LVL20:
 176              	.L17:
 177              		.align	2
 178              	.L16:
 179 004c 00000000 		.word	.LC0
 180 0050 1C000000 		.word	.LC1
 181              		.cfi_endproc
 182              	.LFE65:
 183              		.size	psc_Comm_GetRecvLine, .-psc_Comm_GetRecvLine
 184              		.section	.text.PSC_Comm_GetCommand,"ax",%progbits
 185              		.align	2
 186              		.global	PSC_Comm_GetCommand
 187              		.thumb
 188              		.thumb_func
 189              		.type	PSC_Comm_GetCommand, %function
 190              	PSC_Comm_GetCommand:
 191              	.LFB64:
  44:PSC_Communicate.c ****     PSC_RET ret;
 192              		.loc 1 44 0
 193              		.cfi_startproc
 194              		@ args = 0, pretend = 0, frame = 0
 195              		@ frame_needed = 0, uses_anonymous_args = 0
 196              	.LVL21:
 197 0000 08B5     		push	{r3, lr}
 198              		.cfi_def_cfa_offset 8
 199              		.cfi_offset 3, -8
 200              		.cfi_offset 14, -4
  47:PSC_Communicate.c ****     if( ret != PSC_RET_SUCCESS )
 201              		.loc 1 47 0
 202 0002 FFF7FEFF 		bl	psc_Comm_GetRecvLine
 203              	.LVL22:
  48:PSC_Communicate.c ****     {
 204              		.loc 1 48 0
ARM GAS  C:\Users\youkan\AppData\Local\Temp\ccodd5Kf.s 			page 7


 205 0006 0028     		cmp	r0, #0
 206 0008 FFD0     		beq	.L19
 207              	.L19:
  54:PSC_Communicate.c **** 
 208              		.loc 1 54 0
 209 000a 08BD     		pop	{r3, pc}
 210              		.cfi_endproc
 211              	.LFE64:
 212              		.size	PSC_Comm_GetCommand, .-PSC_Comm_GetCommand
 213              		.section	.text.PSC_Comm_SndCommand,"ax",%progbits
 214              		.align	2
 215              		.global	PSC_Comm_SndCommand
 216              		.thumb
 217              		.thumb_func
 218              		.type	PSC_Comm_SndCommand, %function
 219              	PSC_Comm_SndCommand:
 220              	.LFB67:
 121:PSC_Communicate.c **** 
 122:PSC_Communicate.c **** 
 123:PSC_Communicate.c **** PSC_RET PSC_Comm_SndCommand(DEV_ID dev_id,PSC_CHAR pChar[],uint8 ucSize)
 124:PSC_Communicate.c **** {
 221              		.loc 1 124 0
 222              		.cfi_startproc
 223              		@ args = 0, pretend = 0, frame = 16
 224              		@ frame_needed = 0, uses_anonymous_args = 0
 225              	.LVL23:
 226 0000 70B5     		push	{r4, r5, r6, lr}
 227              		.cfi_def_cfa_offset 16
 228              		.cfi_offset 4, -16
 229              		.cfi_offset 5, -12
 230              		.cfi_offset 6, -8
 231              		.cfi_offset 14, -4
 232 0002 84B0     		sub	sp, sp, #16
 233              		.cfi_def_cfa_offset 32
 234 0004 0446     		mov	r4, r0
 235 0006 0D46     		mov	r5, r1
 236 0008 1646     		mov	r6, r2
 125:PSC_Communicate.c ****     char    tmpData[SZ_COMMAND];
 126:PSC_Communicate.c ****     /* debug */
 127:PSC_Communicate.c ****     DBG_printf("TRACE Send Command Start \n\r");
 237              		.loc 1 127 0
 238 000a 0C48     		ldr	r0, .L27
 239              	.LVL24:
 240 000c FFF7FEFF 		bl	DBG_printf
 241              	.LVL25:
 128:PSC_Communicate.c ****     switch(dev_id)
 242              		.loc 1 128 0
 243 0010 34B1     		cbz	r4, .L24
 244 0012 012C     		cmp	r4, #1
 245 0014 0CD1     		bne	.L23
 129:PSC_Communicate.c ****     {
 130:PSC_Communicate.c ****         case DEV_ID_CAM:
 131:PSC_Communicate.c ****             //UART_TO_CAMERA_PutString(pChar);
 132:PSC_Communicate.c ****             UART_TO_CAMERA_PutArray(pChar, ucSize);
 246              		.loc 1 132 0
 247 0016 2846     		mov	r0, r5
 248 0018 3146     		mov	r1, r6
ARM GAS  C:\Users\youkan\AppData\Local\Temp\ccodd5Kf.s 			page 8


 249 001a FFF7FEFF 		bl	UART_TO_CAMERA_PutArray
 250              	.LVL26:
 133:PSC_Communicate.c ****             break;
 251              		.loc 1 133 0
 252 001e 07E0     		b	.L23
 253              	.L24:
 134:PSC_Communicate.c ****         case DEV_ID_COMM:
 135:PSC_Communicate.c ****             sprintf(tmpData,"TXDT %s",pChar);
 254              		.loc 1 135 0
 255 0020 6846     		mov	r0, sp
 256 0022 0749     		ldr	r1, .L27+4
 257 0024 2A46     		mov	r2, r5
 258 0026 FFF7FEFF 		bl	sprintf
 259              	.LVL27:
 136:PSC_Communicate.c ****             UART_TO_COMM_PutString(tmpData);
 260              		.loc 1 136 0
 261 002a 6846     		mov	r0, sp
 262 002c FFF7FEFF 		bl	UART_TO_COMM_PutString
 263              	.LVL28:
 264              	.L23:
 137:PSC_Communicate.c ****             break;
 138:PSC_Communicate.c ****         default:
 139:PSC_Communicate.c ****             break;
 140:PSC_Communicate.c ****     }
 141:PSC_Communicate.c ****     DBG_printf("TRACE Send Command END \n\r");
 265              		.loc 1 141 0
 266 0030 0448     		ldr	r0, .L27+8
 267 0032 FFF7FEFF 		bl	DBG_printf
 268              	.LVL29:
 142:PSC_Communicate.c ****     return PSC_RET_SUCCESS;
 143:PSC_Communicate.c **** }...
 269              		.loc 1 143 0
 270 0036 0020     		movs	r0, #0
 271 0038 04B0     		add	sp, sp, #16
 272              		.cfi_def_cfa_offset 16
 273              		@ sp needed
 274 003a 70BD     		pop	{r4, r5, r6, pc}
 275              	.LVL30:
 276              	.L28:
 277              		.align	2
 278              	.L27:
 279 003c 3C000000 		.word	.LC2
 280 0040 58000000 		.word	.LC3
 281 0044 60000000 		.word	.LC4
 282              		.cfi_endproc
 283              	.LFE67:
 284              		.size	PSC_Comm_SndCommand, .-PSC_Comm_SndCommand
 285              		.section	.rodata.str1.4,"aMS",%progbits,1
 286              		.align	2
 287              	.LC0:
 288 0000 54524143 		.ascii	"TRACE Start Get Command \012\015\000"
 288      45205374 
 288      61727420 
 288      47657420 
 288      436F6D6D 
 289 001b 00       		.space	1
 290              	.LC1:
ARM GAS  C:\Users\youkan\AppData\Local\Temp\ccodd5Kf.s 			page 9


 291 001c 54524143 		.ascii	"TRACE Complete Get Command \012\015\000"
 291      4520436F 
 291      6D706C65 
 291      74652047 
 291      65742043 
 292 003a 0000     		.space	2
 293              	.LC2:
 294 003c 54524143 		.ascii	"TRACE Send Command Start \012\015\000"
 294      45205365 
 294      6E642043 
 294      6F6D6D61 
 294      6E642053 
 295              	.LC3:
 296 0058 54584454 		.ascii	"TXDT %s\000"
 296      20257300 
 297              	.LC4:
 298 0060 54524143 		.ascii	"TRACE Send Command END \012\015\000"
 298      45205365 
 298      6E642043 
 298      6F6D6D61 
 298      6E642045 
 299 007a 0000     		.text
 300              	.Letext0:
 301              		.file 2 "c:\\program files (x86)\\cypress\\psoc creator\\4.0\\psoc creator\\import\\gnu\\arm\\4.9.
 302              		.file 3 "PSC_Types.h"
 303              		.file 4 "c:\\program files (x86)\\cypress\\psoc creator\\4.0\\psoc creator\\import\\gnu\\arm\\4.9.
 304              		.file 5 "Generated_Source\\PSoC5/cytypes.h"
 305              		.file 6 "PSC_CMD_API.h"
 306              		.file 7 "Generated_Source\\PSoC5/UART_TO_COMM.h"
 307              		.file 8 "Generated_Source\\PSoC5/UART_TO_CAMERA.h"
 308              		.file 9 "Debugs.h"
 309              		.file 10 "c:\\program files (x86)\\cypress\\psoc creator\\4.0\\psoc creator\\import\\gnu\\arm\\4.9
 310              		.file 11 "Generated_Source\\PSoC5/core_cm3.h"