ARM GAS  C:\Users\youkan\AppData\Local\Temp\ccJr5ZFd.s 			page 1


   1              		.syntax unified
   2              		.cpu cortex-m3
   3              		.fpu softvfp
   4              		.eabi_attribute 20, 1
   5              		.eabi_attribute 21, 1
   6              		.eabi_attribute 23, 3
   7              		.eabi_attribute 24, 1
   8              		.eabi_attribute 25, 1
   9              		.eabi_attribute 26, 1
  10              		.eabi_attribute 30, 1
  11              		.eabi_attribute 34, 1
  12              		.eabi_attribute 18, 4
  13              		.thumb
  14              		.file	"PSC_Proc_CameraShot.c"
  15              		.text
  16              	.Ltext0:
  17              		.cfi_sections	.debug_frame
  18              		.section	.text.PSC_Proc_CameraShot_Init,"ax",%progbits
  19              		.align	2
  20              		.global	PSC_Proc_CameraShot_Init
  21              		.thumb
  22              		.thumb_func
  23              		.type	PSC_Proc_CameraShot_Init, %function
  24              	PSC_Proc_CameraShot_Init:
  25              	.LFB63:
  26              		.file 1 "PSC_Proc_CameraShot.c"
   1:PSC_Proc_CameraShot.c **** /* ========================================
   2:PSC_Proc_CameraShot.c ****  *
   3:PSC_Proc_CameraShot.c ****  * Copyright YOUR COMPANY, THE YEAR
   4:PSC_Proc_CameraShot.c ****  * All Rights Reserved
   5:PSC_Proc_CameraShot.c ****  * UNPUBLISHED, LICENSED SOFTWARE.
   6:PSC_Proc_CameraShot.c ****  *
   7:PSC_Proc_CameraShot.c ****  * CONFIDENTIAL AND PROPRIETARY INFORMATION
   8:PSC_Proc_CameraShot.c ****  * WHICH IS THE PROPERTY OF your company.
   9:PSC_Proc_CameraShot.c ****  *
  10:PSC_Proc_CameraShot.c ****  * ========================================
  11:PSC_Proc_CameraShot.c **** */
  12:PSC_Proc_CameraShot.c **** 
  13:PSC_Proc_CameraShot.c **** /* [] END OF FILE */
  14:PSC_Proc_CameraShot.c **** 
  15:PSC_Proc_CameraShot.c **** 
  16:PSC_Proc_CameraShot.c **** #include "PSC_Types.h"
  17:PSC_Proc_CameraShot.c **** #include "PSC_CMD_API.h"
  18:PSC_Proc_CameraShot.c **** #include "PSC_Camera.h"
  19:PSC_Proc_CameraShot.c **** #include "PSC_Communicate.h"
  20:PSC_Proc_CameraShot.c **** #include "PSC_Proc_Common.h"
  21:PSC_Proc_CameraShot.c **** #include "PSC_Proc_CameraShot.h"
  22:PSC_Proc_CameraShot.c **** #include "project.h"
  23:PSC_Proc_CameraShot.c **** #include "Debugs.h"
  24:PSC_Proc_CameraShot.c **** 
  25:PSC_Proc_CameraShot.c **** typedef enum PSC_PROC_STATE_CAMERASHOTtag
  26:PSC_Proc_CameraShot.c **** {
  27:PSC_Proc_CameraShot.c ****     PR_STATE_CS_INIT,
  28:PSC_Proc_CameraShot.c ****     PR_STATE_CS_GET,
  29:PSC_Proc_CameraShot.c ****     PR_STATE_CS_RESET_CAMERA,
  30:PSC_Proc_CameraShot.c ****     PR_STATE_CS_BAURATE,
  31:PSC_Proc_CameraShot.c ****     PR_STATE_CS_CONFIG_DATASIZE,
ARM GAS  C:\Users\youkan\AppData\Local\Temp\ccJr5ZFd.s 			page 2


  32:PSC_Proc_CameraShot.c ****     PR_STATE_CS_TAKE_PICTURE,
  33:PSC_Proc_CameraShot.c ****     PR_STATE_CS_LOAD_DATA,
  34:PSC_Proc_CameraShot.c ****     PR_STATE_CS_MAX
  35:PSC_Proc_CameraShot.c **** }PSC_PROC_STATE_CAMERASHOT;
  36:PSC_Proc_CameraShot.c **** 
  37:PSC_Proc_CameraShot.c **** 
  38:PSC_Proc_CameraShot.c **** static PSC_PROC_STATE_CAMERASHOT svPSC_PROC_STATE_CAMERASHOT;
  39:PSC_Proc_CameraShot.c **** PSC_PROC_STATE gsvPSC_PROC_STATE;
  40:PSC_Proc_CameraShot.c **** 
  41:PSC_Proc_CameraShot.c **** PSC_RET PSC_Proc_CameraShot_Init(PSC_RET (**)(PSC_ST_CMD*));
  42:PSC_Proc_CameraShot.c **** PSC_RET PSC_Proc_CameraShot_Main(PSC_ST_CMD*);
  43:PSC_Proc_CameraShot.c **** 
  44:PSC_Proc_CameraShot.c **** PSC_RET psc_Proc_CameraShot_Complete();
  45:PSC_Proc_CameraShot.c **** PSC_RET psc_Proc_CameraShot_Get(PSC_ST_CMD*);
  46:PSC_Proc_CameraShot.c **** PSC_RET psc_Proc_CameraShot_ResetCamera(PSC_ST_CMD*);
  47:PSC_Proc_CameraShot.c **** PSC_RET psc_Proc_CameraShot_Baurate(PSC_ST_CMD*);
  48:PSC_Proc_CameraShot.c **** PSC_RET psc_Proc_CameraShot_ConfigDataSize(PSC_ST_CMD*);
  49:PSC_Proc_CameraShot.c **** PSC_RET psc_Proc_CameraShot_TakePicture(PSC_ST_CMD*);
  50:PSC_Proc_CameraShot.c **** PSC_RET psc_Proc_CameraShot_LoadData(PSC_ST_CMD*);
  51:PSC_Proc_CameraShot.c **** 
  52:PSC_Proc_CameraShot.c **** 
  53:PSC_Proc_CameraShot.c **** PSC_RET PSC_Proc_CameraShot_Init(PSC_RET (**pFunc)(PSC_ST_CMD*))
  54:PSC_Proc_CameraShot.c **** {
  27              		.loc 1 54 0
  28              		.cfi_startproc
  29              		@ args = 0, pretend = 0, frame = 0
  30              		@ frame_needed = 0, uses_anonymous_args = 0
  31              		@ link register save eliminated.
  32              	.LVL0:
  55:PSC_Proc_CameraShot.c ****     gsvPSC_PROC_STATE = PSC_PROC_ACTIVE;
  33              		.loc 1 55 0
  34 0000 0023     		movs	r3, #0
  35 0002 044A     		ldr	r2, .L2
  36 0004 1370     		strb	r3, [r2]
  56:PSC_Proc_CameraShot.c ****     svPSC_PROC_STATE_CAMERASHOT = PR_STATE_CS_INIT;
  37              		.loc 1 56 0
  38 0006 044A     		ldr	r2, .L2+4
  39 0008 1370     		strb	r3, [r2]
  57:PSC_Proc_CameraShot.c ****     *pFunc = &PSC_Proc_CameraShot_Main;
  40              		.loc 1 57 0
  41 000a 044A     		ldr	r2, .L2+8
  42 000c 0260     		str	r2, [r0]
  58:PSC_Proc_CameraShot.c ****     return PSC_RET_SUCCESS;
  59:PSC_Proc_CameraShot.c **** }
  43              		.loc 1 59 0
  44 000e 1846     		mov	r0, r3
  45              	.LVL1:
  46 0010 7047     		bx	lr
  47              	.L3:
  48 0012 00BF     		.align	2
  49              	.L2:
  50 0014 00000000 		.word	gsvPSC_PROC_STATE
  51 0018 00000000 		.word	.LANCHOR0
  52 001c 00000000 		.word	PSC_Proc_CameraShot_Main
  53              		.cfi_endproc
  54              	.LFE63:
  55              		.size	PSC_Proc_CameraShot_Init, .-PSC_Proc_CameraShot_Init
ARM GAS  C:\Users\youkan\AppData\Local\Temp\ccJr5ZFd.s 			page 3


  56              		.section	.text.psc_Proc_CameraShot_Complete,"ax",%progbits
  57              		.align	2
  58              		.global	psc_Proc_CameraShot_Complete
  59              		.thumb
  60              		.thumb_func
  61              		.type	psc_Proc_CameraShot_Complete, %function
  62              	psc_Proc_CameraShot_Complete:
  63              	.LFB65:
  60:PSC_Proc_CameraShot.c **** 
  61:PSC_Proc_CameraShot.c **** PSC_RET PSC_Proc_CameraShot_Main(PSC_ST_CMD* pstData)
  62:PSC_Proc_CameraShot.c **** {
  63:PSC_Proc_CameraShot.c ****     PSC_RET ret;
  64:PSC_Proc_CameraShot.c **** 
  65:PSC_Proc_CameraShot.c ****     ret = PSC_RET_SUCCESS;
  66:PSC_Proc_CameraShot.c ****     
  67:PSC_Proc_CameraShot.c ****     switch(svPSC_PROC_STATE_CAMERASHOT)
  68:PSC_Proc_CameraShot.c ****     {
  69:PSC_Proc_CameraShot.c ****         case PR_STATE_CS_INIT:
  70:PSC_Proc_CameraShot.c ****             DBG_printf("TRACE Proc CS Init \n\r");
  71:PSC_Proc_CameraShot.c ****             ret = psc_Proc_CameraShot_Get(pstData);
  72:PSC_Proc_CameraShot.c ****             break;
  73:PSC_Proc_CameraShot.c ****         case PR_STATE_CS_GET:
  74:PSC_Proc_CameraShot.c ****             DBG_printf("TRACE Proc CS Get \n\r");
  75:PSC_Proc_CameraShot.c ****             ret = psc_Proc_CameraShot_ResetCamera(pstData);
  76:PSC_Proc_CameraShot.c ****             break;
  77:PSC_Proc_CameraShot.c ****         case PR_STATE_CS_RESET_CAMERA:
  78:PSC_Proc_CameraShot.c ****             DBG_printf("TRACE Proc CS Camera \n\r");
  79:PSC_Proc_CameraShot.c ****             ret = psc_Proc_CameraShot_Baurate(pstData);
  80:PSC_Proc_CameraShot.c ****             break;
  81:PSC_Proc_CameraShot.c ****         case PR_STATE_CS_BAURATE:
  82:PSC_Proc_CameraShot.c ****             DBG_printf("TRACE Proc CS Baurate \n\r");
  83:PSC_Proc_CameraShot.c ****             ret = psc_Proc_CameraShot_ConfigDataSize(pstData);
  84:PSC_Proc_CameraShot.c ****             break;
  85:PSC_Proc_CameraShot.c ****         case PR_STATE_CS_CONFIG_DATASIZE:
  86:PSC_Proc_CameraShot.c ****             DBG_printf("TRACE Proc CS Datasize \n\r");
  87:PSC_Proc_CameraShot.c ****             ret = psc_Proc_CameraShot_TakePicture(pstData);
  88:PSC_Proc_CameraShot.c ****             break;
  89:PSC_Proc_CameraShot.c ****         case PR_STATE_CS_TAKE_PICTURE:
  90:PSC_Proc_CameraShot.c ****             DBG_printf("TRACE Proc CS take picture \n\r");
  91:PSC_Proc_CameraShot.c ****             ret = psc_Proc_CameraShot_LoadData(pstData);
  92:PSC_Proc_CameraShot.c ****             break;
  93:PSC_Proc_CameraShot.c ****         case PR_STATE_CS_LOAD_DATA:
  94:PSC_Proc_CameraShot.c ****             DBG_printf("TRACE Proc CS Load Data \n\r");
  95:PSC_Proc_CameraShot.c ****             ret = psc_Proc_CameraShot_Complete();
  96:PSC_Proc_CameraShot.c ****             break;
  97:PSC_Proc_CameraShot.c ****         case PR_STATE_CS_MAX:
  98:PSC_Proc_CameraShot.c ****             break;
  99:PSC_Proc_CameraShot.c ****         default:
 100:PSC_Proc_CameraShot.c ****             ret = PSC_RET_INTERNAL_ERROR;
 101:PSC_Proc_CameraShot.c ****             break;
 102:PSC_Proc_CameraShot.c ****         
 103:PSC_Proc_CameraShot.c ****     }
 104:PSC_Proc_CameraShot.c ****     CyDelay(500);
 105:PSC_Proc_CameraShot.c **** //    if( ret == PSC_RET_SUCCESS )
 106:PSC_Proc_CameraShot.c **** //    {
 107:PSC_Proc_CameraShot.c **** //        svPSC_PROC_STATE_CAMERASHOT++;
 108:PSC_Proc_CameraShot.c **** //    }
ARM GAS  C:\Users\youkan\AppData\Local\Temp\ccJr5ZFd.s 			page 4


 109:PSC_Proc_CameraShot.c ****     
 110:PSC_Proc_CameraShot.c ****     return ret;
 111:PSC_Proc_CameraShot.c **** }
 112:PSC_Proc_CameraShot.c **** 
 113:PSC_Proc_CameraShot.c **** 
 114:PSC_Proc_CameraShot.c **** 
 115:PSC_Proc_CameraShot.c **** PSC_RET psc_Proc_CameraShot_Complete()
 116:PSC_Proc_CameraShot.c **** {
  64              		.loc 1 116 0
  65              		.cfi_startproc
  66              		@ args = 0, pretend = 0, frame = 0
  67              		@ frame_needed = 0, uses_anonymous_args = 0
  68              		@ link register save eliminated.
 117:PSC_Proc_CameraShot.c ****     
 118:PSC_Proc_CameraShot.c ****     svPSC_PROC_STATE_CAMERASHOT++;
  69              		.loc 1 118 0
  70 0000 044A     		ldr	r2, .L5
  71 0002 1378     		ldrb	r3, [r2]	@ zero_extendqisi2
  72 0004 0133     		adds	r3, r3, #1
  73 0006 1370     		strb	r3, [r2]
 119:PSC_Proc_CameraShot.c ****     gsvPSC_PROC_STATE = PSC_PROC_SLEEP;
  74              		.loc 1 119 0
  75 0008 0122     		movs	r2, #1
  76 000a 034B     		ldr	r3, .L5+4
  77 000c 1A70     		strb	r2, [r3]
 120:PSC_Proc_CameraShot.c ****     return PSC_RET_SUCCESS;
 121:PSC_Proc_CameraShot.c **** }
  78              		.loc 1 121 0
  79 000e 0020     		movs	r0, #0
  80 0010 7047     		bx	lr
  81              	.L6:
  82 0012 00BF     		.align	2
  83              	.L5:
  84 0014 00000000 		.word	.LANCHOR0
  85 0018 00000000 		.word	gsvPSC_PROC_STATE
  86              		.cfi_endproc
  87              	.LFE65:
  88              		.size	psc_Proc_CameraShot_Complete, .-psc_Proc_CameraShot_Complete
  89              		.section	.text.psc_Proc_CameraShot_Get,"ax",%progbits
  90              		.align	2
  91              		.global	psc_Proc_CameraShot_Get
  92              		.thumb
  93              		.thumb_func
  94              		.type	psc_Proc_CameraShot_Get, %function
  95              	psc_Proc_CameraShot_Get:
  96              	.LFB66:
 122:PSC_Proc_CameraShot.c **** 
 123:PSC_Proc_CameraShot.c **** 
 124:PSC_Proc_CameraShot.c **** PSC_RET psc_Proc_CameraShot_Get(PSC_ST_CMD* pstData)
 125:PSC_Proc_CameraShot.c **** {
  97              		.loc 1 125 0
  98              		.cfi_startproc
  99              		@ args = 0, pretend = 0, frame = 0
 100              		@ frame_needed = 0, uses_anonymous_args = 0
 101              	.LVL2:
 102 0000 10B5     		push	{r4, lr}
 103              		.cfi_def_cfa_offset 8
ARM GAS  C:\Users\youkan\AppData\Local\Temp\ccJr5ZFd.s 			page 5


 104              		.cfi_offset 4, -8
 105              		.cfi_offset 14, -4
 106 0002 0446     		mov	r4, r0
 126:PSC_Proc_CameraShot.c ****     PSC_RET ret;
 127:PSC_Proc_CameraShot.c ****     
 128:PSC_Proc_CameraShot.c ****   
 129:PSC_Proc_CameraShot.c ****     ret = PSC_Comm_SndCommand(DEV_ID_CAM,get,get_size);
 107              		.loc 1 129 0
 108 0004 0120     		movs	r0, #1
 109              	.LVL3:
 110 0006 0849     		ldr	r1, .L12
 111 0008 1022     		movs	r2, #16
 112 000a FFF7FEFF 		bl	PSC_Comm_SndCommand
 113              	.LVL4:
 130:PSC_Proc_CameraShot.c ****     if( ret != PSC_RET_SUCCESS )
 114              		.loc 1 130 0
 115 000e 48B9     		cbnz	r0, .L9
 131:PSC_Proc_CameraShot.c ****     {
 132:PSC_Proc_CameraShot.c ****         return ret;
 133:PSC_Proc_CameraShot.c ****     }
 134:PSC_Proc_CameraShot.c **** 
 135:PSC_Proc_CameraShot.c ****     ret = PSC_CMD_SET_DEVICE_ID(pstData,DEV_ID_CAM);
 116              		.loc 1 135 0
 117 0010 2046     		mov	r0, r4
 118              	.LVL5:
 119 0012 0121     		movs	r1, #1
 120 0014 FFF7FEFF 		bl	PSC_CMD_SET_DEVICE_ID
 121              	.LVL6:
 136:PSC_Proc_CameraShot.c ****     if( ret != PSC_RET_SUCCESS )
 122              		.loc 1 136 0
 123 0018 28B9     		cbnz	r0, .L10
 137:PSC_Proc_CameraShot.c ****     {
 138:PSC_Proc_CameraShot.c ****         return ret;
 139:PSC_Proc_CameraShot.c ****     }
 140:PSC_Proc_CameraShot.c **** 
 141:PSC_Proc_CameraShot.c ****     svPSC_PROC_STATE_CAMERASHOT++;
 124              		.loc 1 141 0
 125 001a 044A     		ldr	r2, .L12+4
 126 001c 1378     		ldrb	r3, [r2]	@ zero_extendqisi2
 127 001e 0133     		adds	r3, r3, #1
 128 0020 1370     		strb	r3, [r2]
 142:PSC_Proc_CameraShot.c ****     return PSC_RET_SUCCESS;
 129              		.loc 1 142 0
 130 0022 10BD     		pop	{r4, pc}
 131              	.LVL7:
 132              	.L9:
 133 0024 10BD     		pop	{r4, pc}
 134              	.LVL8:
 135              	.L10:
 143:PSC_Proc_CameraShot.c **** }
 136              		.loc 1 143 0
 137 0026 10BD     		pop	{r4, pc}
 138              	.LVL9:
 139              	.L13:
 140              		.align	2
 141              	.L12:
 142 0028 00000000 		.word	.LANCHOR1
ARM GAS  C:\Users\youkan\AppData\Local\Temp\ccJr5ZFd.s 			page 6


 143 002c 00000000 		.word	.LANCHOR0
 144              		.cfi_endproc
 145              	.LFE66:
 146              		.size	psc_Proc_CameraShot_Get, .-psc_Proc_CameraShot_Get
 147              		.section	.text.psc_Proc_CameraShot_ResetCamera,"ax",%progbits
 148              		.align	2
 149              		.global	psc_Proc_CameraShot_ResetCamera
 150              		.thumb
 151              		.thumb_func
 152              		.type	psc_Proc_CameraShot_ResetCamera, %function
 153              	psc_Proc_CameraShot_ResetCamera:
 154              	.LFB67:
 144:PSC_Proc_CameraShot.c **** 
 145:PSC_Proc_CameraShot.c **** 
 146:PSC_Proc_CameraShot.c **** PSC_RET psc_Proc_CameraShot_ResetCamera(PSC_ST_CMD* pstData)
 147:PSC_Proc_CameraShot.c **** {
 155              		.loc 1 147 0
 156              		.cfi_startproc
 157              		@ args = 0, pretend = 0, frame = 0
 158              		@ frame_needed = 0, uses_anonymous_args = 0
 159              	.LVL10:
 160 0000 10B5     		push	{r4, lr}
 161              		.cfi_def_cfa_offset 8
 162              		.cfi_offset 4, -8
 163              		.cfi_offset 14, -4
 164 0002 0446     		mov	r4, r0
 148:PSC_Proc_CameraShot.c ****     PSC_RET ret;
 149:PSC_Proc_CameraShot.c ****     //TODO: Return Value Check from CAM
 150:PSC_Proc_CameraShot.c ****     //      That is in pstData->
 151:PSC_Proc_CameraShot.c ****     
 152:PSC_Proc_CameraShot.c ****     ret = PSC_Comm_SndCommand(DEV_ID_CAM,reset_camera,read_datasize_size);
 165              		.loc 1 152 0
 166 0004 0120     		movs	r0, #1
 167              	.LVL11:
 168 0006 0849     		ldr	r1, .L19
 169 0008 1422     		movs	r2, #20
 170 000a FFF7FEFF 		bl	PSC_Comm_SndCommand
 171              	.LVL12:
 153:PSC_Proc_CameraShot.c ****     if( ret != PSC_RET_SUCCESS )
 172              		.loc 1 153 0
 173 000e 48B9     		cbnz	r0, .L16
 154:PSC_Proc_CameraShot.c ****     {
 155:PSC_Proc_CameraShot.c ****         return ret;
 156:PSC_Proc_CameraShot.c ****         
 157:PSC_Proc_CameraShot.c ****     }
 158:PSC_Proc_CameraShot.c **** 
 159:PSC_Proc_CameraShot.c ****     ret = PSC_CMD_SET_DEVICE_ID(pstData,DEV_ID_CAM);
 174              		.loc 1 159 0
 175 0010 2046     		mov	r0, r4
 176              	.LVL13:
 177 0012 0121     		movs	r1, #1
 178 0014 FFF7FEFF 		bl	PSC_CMD_SET_DEVICE_ID
 179              	.LVL14:
 160:PSC_Proc_CameraShot.c ****     if( ret != PSC_RET_SUCCESS )
 180              		.loc 1 160 0
 181 0018 28B9     		cbnz	r0, .L17
 161:PSC_Proc_CameraShot.c ****     {
ARM GAS  C:\Users\youkan\AppData\Local\Temp\ccJr5ZFd.s 			page 7


 162:PSC_Proc_CameraShot.c ****         return ret;
 163:PSC_Proc_CameraShot.c ****     }
 164:PSC_Proc_CameraShot.c ****     
 165:PSC_Proc_CameraShot.c ****     svPSC_PROC_STATE_CAMERASHOT++;
 182              		.loc 1 165 0
 183 001a 044A     		ldr	r2, .L19+4
 184 001c 1378     		ldrb	r3, [r2]	@ zero_extendqisi2
 185 001e 0133     		adds	r3, r3, #1
 186 0020 1370     		strb	r3, [r2]
 166:PSC_Proc_CameraShot.c ****     return PSC_RET_SUCCESS;
 187              		.loc 1 166 0
 188 0022 10BD     		pop	{r4, pc}
 189              	.LVL15:
 190              	.L16:
 191 0024 10BD     		pop	{r4, pc}
 192              	.LVL16:
 193              	.L17:
 167:PSC_Proc_CameraShot.c **** }
 194              		.loc 1 167 0
 195 0026 10BD     		pop	{r4, pc}
 196              	.LVL17:
 197              	.L20:
 198              		.align	2
 199              	.L19:
 200 0028 04000000 		.word	.LANCHOR1+4
 201 002c 00000000 		.word	.LANCHOR0
 202              		.cfi_endproc
 203              	.LFE67:
 204              		.size	psc_Proc_CameraShot_ResetCamera, .-psc_Proc_CameraShot_ResetCamera
 205              		.section	.text.psc_Proc_CameraShot_Baurate,"ax",%progbits
 206              		.align	2
 207              		.global	psc_Proc_CameraShot_Baurate
 208              		.thumb
 209              		.thumb_func
 210              		.type	psc_Proc_CameraShot_Baurate, %function
 211              	psc_Proc_CameraShot_Baurate:
 212              	.LFB68:
 168:PSC_Proc_CameraShot.c **** 
 169:PSC_Proc_CameraShot.c **** PSC_RET psc_Proc_CameraShot_Baurate(PSC_ST_CMD* pstData)
 170:PSC_Proc_CameraShot.c **** {
 213              		.loc 1 170 0
 214              		.cfi_startproc
 215              		@ args = 0, pretend = 0, frame = 0
 216              		@ frame_needed = 0, uses_anonymous_args = 0
 217              		@ link register save eliminated.
 218              	.LVL18:
 171:PSC_Proc_CameraShot.c ****     PSC_RET ret;
 172:PSC_Proc_CameraShot.c ****     //TODO: Return Value Check from CAM
 173:PSC_Proc_CameraShot.c ****     //      That is in pstData->
 174:PSC_Proc_CameraShot.c ****     svPSC_PROC_STATE_CAMERASHOT++;
 219              		.loc 1 174 0
 220 0000 024A     		ldr	r2, .L22
 221 0002 1378     		ldrb	r3, [r2]	@ zero_extendqisi2
 222 0004 0133     		adds	r3, r3, #1
 223 0006 1370     		strb	r3, [r2]
 175:PSC_Proc_CameraShot.c ****     return PSC_RET_SUCCESS;
 176:PSC_Proc_CameraShot.c ****     //ret = PSC_Comm_SndCommand(DEV_ID_CAM,baurate,sizeof(baurate));
ARM GAS  C:\Users\youkan\AppData\Local\Temp\ccJr5ZFd.s 			page 8


 177:PSC_Proc_CameraShot.c ****     if( ret != PSC_RET_SUCCESS )
 178:PSC_Proc_CameraShot.c ****     {
 179:PSC_Proc_CameraShot.c ****         //return ret;
 180:PSC_Proc_CameraShot.c ****         
 181:PSC_Proc_CameraShot.c ****     }
 182:PSC_Proc_CameraShot.c **** 
 183:PSC_Proc_CameraShot.c ****     ret = PSC_CMD_SET_DEVICE_ID(pstData,DEV_ID_CAM);
 184:PSC_Proc_CameraShot.c ****     if( ret != PSC_RET_SUCCESS )
 185:PSC_Proc_CameraShot.c ****     {
 186:PSC_Proc_CameraShot.c ****         return ret;
 187:PSC_Proc_CameraShot.c ****     }
 188:PSC_Proc_CameraShot.c ****     
 189:PSC_Proc_CameraShot.c ****     svPSC_PROC_STATE_CAMERASHOT++;
 190:PSC_Proc_CameraShot.c ****     return PSC_RET_SUCCESS;
 191:PSC_Proc_CameraShot.c **** }
 224              		.loc 1 191 0
 225 0008 0020     		movs	r0, #0
 226              	.LVL19:
 227 000a 7047     		bx	lr
 228              	.L23:
 229              		.align	2
 230              	.L22:
 231 000c 00000000 		.word	.LANCHOR0
 232              		.cfi_endproc
 233              	.LFE68:
 234              		.size	psc_Proc_CameraShot_Baurate, .-psc_Proc_CameraShot_Baurate
 235              		.section	.text.psc_Proc_CameraShot_ConfigDataSize,"ax",%progbits
 236              		.align	2
 237              		.global	psc_Proc_CameraShot_ConfigDataSize
 238              		.thumb
 239              		.thumb_func
 240              		.type	psc_Proc_CameraShot_ConfigDataSize, %function
 241              	psc_Proc_CameraShot_ConfigDataSize:
 242              	.LFB69:
 192:PSC_Proc_CameraShot.c **** 
 193:PSC_Proc_CameraShot.c **** PSC_RET psc_Proc_CameraShot_ConfigDataSize(PSC_ST_CMD* pstData)
 194:PSC_Proc_CameraShot.c **** {
 243              		.loc 1 194 0
 244              		.cfi_startproc
 245              		@ args = 0, pretend = 0, frame = 0
 246              		@ frame_needed = 0, uses_anonymous_args = 0
 247              	.LVL20:
 248 0000 10B5     		push	{r4, lr}
 249              		.cfi_def_cfa_offset 8
 250              		.cfi_offset 4, -8
 251              		.cfi_offset 14, -4
 252 0002 0446     		mov	r4, r0
 195:PSC_Proc_CameraShot.c ****     PSC_RET ret;
 196:PSC_Proc_CameraShot.c ****     
 197:PSC_Proc_CameraShot.c ****     ret = PSC_Comm_SndCommand(DEV_ID_CAM,config_datasize,config_datasize_size);
 253              		.loc 1 197 0
 254 0004 0120     		movs	r0, #1
 255              	.LVL21:
 256 0006 0849     		ldr	r1, .L29
 257 0008 2422     		movs	r2, #36
 258 000a FFF7FEFF 		bl	PSC_Comm_SndCommand
 259              	.LVL22:
ARM GAS  C:\Users\youkan\AppData\Local\Temp\ccJr5ZFd.s 			page 9


 198:PSC_Proc_CameraShot.c ****     if( ret != PSC_RET_SUCCESS )
 260              		.loc 1 198 0
 261 000e 48B9     		cbnz	r0, .L26
 199:PSC_Proc_CameraShot.c ****     {
 200:PSC_Proc_CameraShot.c ****         return ret;
 201:PSC_Proc_CameraShot.c ****         
 202:PSC_Proc_CameraShot.c ****     }
 203:PSC_Proc_CameraShot.c **** 
 204:PSC_Proc_CameraShot.c ****     ret = PSC_CMD_SET_DEVICE_ID(pstData,DEV_ID_CAM);
 262              		.loc 1 204 0
 263 0010 2046     		mov	r0, r4
 264              	.LVL23:
 265 0012 0121     		movs	r1, #1
 266 0014 FFF7FEFF 		bl	PSC_CMD_SET_DEVICE_ID
 267              	.LVL24:
 205:PSC_Proc_CameraShot.c ****     if( ret != PSC_RET_SUCCESS )
 268              		.loc 1 205 0
 269 0018 28B9     		cbnz	r0, .L27
 206:PSC_Proc_CameraShot.c ****     {
 207:PSC_Proc_CameraShot.c ****         return ret;
 208:PSC_Proc_CameraShot.c ****     }
 209:PSC_Proc_CameraShot.c ****     
 210:PSC_Proc_CameraShot.c ****     svPSC_PROC_STATE_CAMERASHOT++;
 270              		.loc 1 210 0
 271 001a 044A     		ldr	r2, .L29+4
 272 001c 1378     		ldrb	r3, [r2]	@ zero_extendqisi2
 273 001e 0133     		adds	r3, r3, #1
 274 0020 1370     		strb	r3, [r2]
 211:PSC_Proc_CameraShot.c ****     return PSC_RET_SUCCESS;
 275              		.loc 1 211 0
 276 0022 10BD     		pop	{r4, pc}
 277              	.LVL25:
 278              	.L26:
 279 0024 10BD     		pop	{r4, pc}
 280              	.LVL26:
 281              	.L27:
 212:PSC_Proc_CameraShot.c **** }
 282              		.loc 1 212 0
 283 0026 10BD     		pop	{r4, pc}
 284              	.LVL27:
 285              	.L30:
 286              		.align	2
 287              	.L29:
 288 0028 08000000 		.word	.LANCHOR1+8
 289 002c 00000000 		.word	.LANCHOR0
 290              		.cfi_endproc
 291              	.LFE69:
 292              		.size	psc_Proc_CameraShot_ConfigDataSize, .-psc_Proc_CameraShot_ConfigDataSize
 293              		.section	.text.psc_Proc_CameraShot_TakePicture,"ax",%progbits
 294              		.align	2
 295              		.global	psc_Proc_CameraShot_TakePicture
 296              		.thumb
 297              		.thumb_func
 298              		.type	psc_Proc_CameraShot_TakePicture, %function
 299              	psc_Proc_CameraShot_TakePicture:
 300              	.LFB70:
 213:PSC_Proc_CameraShot.c **** 
ARM GAS  C:\Users\youkan\AppData\Local\Temp\ccJr5ZFd.s 			page 10


 214:PSC_Proc_CameraShot.c **** PSC_RET psc_Proc_CameraShot_TakePicture(PSC_ST_CMD* pstData)
 215:PSC_Proc_CameraShot.c **** {
 301              		.loc 1 215 0
 302              		.cfi_startproc
 303              		@ args = 0, pretend = 0, frame = 0
 304              		@ frame_needed = 0, uses_anonymous_args = 0
 305              	.LVL28:
 306 0000 10B5     		push	{r4, lr}
 307              		.cfi_def_cfa_offset 8
 308              		.cfi_offset 4, -8
 309              		.cfi_offset 14, -4
 310 0002 0446     		mov	r4, r0
 216:PSC_Proc_CameraShot.c ****     PSC_RET ret;
 217:PSC_Proc_CameraShot.c ****     
 218:PSC_Proc_CameraShot.c ****     //TODO: Return Value Check from CAM
 219:PSC_Proc_CameraShot.c ****     //      That is in pstData->
 220:PSC_Proc_CameraShot.c ****     ret = PSC_Comm_SndCommand(DEV_ID_CAM,take_picture,tack_picture_size);
 311              		.loc 1 220 0
 312 0004 0120     		movs	r0, #1
 313              	.LVL29:
 314 0006 0849     		ldr	r1, .L36
 315 0008 1422     		movs	r2, #20
 316 000a FFF7FEFF 		bl	PSC_Comm_SndCommand
 317              	.LVL30:
 221:PSC_Proc_CameraShot.c ****     if( ret != PSC_RET_SUCCESS )
 318              		.loc 1 221 0
 319 000e 48B9     		cbnz	r0, .L33
 222:PSC_Proc_CameraShot.c ****     {
 223:PSC_Proc_CameraShot.c ****         return ret;
 224:PSC_Proc_CameraShot.c ****         
 225:PSC_Proc_CameraShot.c ****     }
 226:PSC_Proc_CameraShot.c **** 
 227:PSC_Proc_CameraShot.c ****     ret = PSC_CMD_SET_DEVICE_ID(pstData,DEV_ID_CAM);
 320              		.loc 1 227 0
 321 0010 2046     		mov	r0, r4
 322              	.LVL31:
 323 0012 0121     		movs	r1, #1
 324 0014 FFF7FEFF 		bl	PSC_CMD_SET_DEVICE_ID
 325              	.LVL32:
 228:PSC_Proc_CameraShot.c ****     if( ret != PSC_RET_SUCCESS )
 326              		.loc 1 228 0
 327 0018 28B9     		cbnz	r0, .L34
 229:PSC_Proc_CameraShot.c ****     {
 230:PSC_Proc_CameraShot.c ****         return ret;
 231:PSC_Proc_CameraShot.c ****     }
 232:PSC_Proc_CameraShot.c ****     
 233:PSC_Proc_CameraShot.c ****     svPSC_PROC_STATE_CAMERASHOT++;
 328              		.loc 1 233 0
 329 001a 044A     		ldr	r2, .L36+4
 330 001c 1378     		ldrb	r3, [r2]	@ zero_extendqisi2
 331 001e 0133     		adds	r3, r3, #1
 332 0020 1370     		strb	r3, [r2]
 234:PSC_Proc_CameraShot.c ****     return PSC_RET_SUCCESS;
 333              		.loc 1 234 0
 334 0022 10BD     		pop	{r4, pc}
 335              	.LVL33:
 336              	.L33:
ARM GAS  C:\Users\youkan\AppData\Local\Temp\ccJr5ZFd.s 			page 11


 337 0024 10BD     		pop	{r4, pc}
 338              	.LVL34:
 339              	.L34:
 235:PSC_Proc_CameraShot.c **** }
 340              		.loc 1 235 0
 341 0026 10BD     		pop	{r4, pc}
 342              	.LVL35:
 343              	.L37:
 344              		.align	2
 345              	.L36:
 346 0028 14000000 		.word	.LANCHOR1+20
 347 002c 00000000 		.word	.LANCHOR0
 348              		.cfi_endproc
 349              	.LFE70:
 350              		.size	psc_Proc_CameraShot_TakePicture, .-psc_Proc_CameraShot_TakePicture
 351              		.section	.text.psc_Proc_CameraShot_LoadData,"ax",%progbits
 352              		.align	2
 353              		.global	psc_Proc_CameraShot_LoadData
 354              		.thumb
 355              		.thumb_func
 356              		.type	psc_Proc_CameraShot_LoadData, %function
 357              	psc_Proc_CameraShot_LoadData:
 358              	.LFB71:
 236:PSC_Proc_CameraShot.c **** 
 237:PSC_Proc_CameraShot.c **** PSC_RET psc_Proc_CameraShot_LoadData(PSC_ST_CMD* pstData)
 238:PSC_Proc_CameraShot.c **** {
 359              		.loc 1 238 0
 360              		.cfi_startproc
 361              		@ args = 0, pretend = 0, frame = 0
 362              		@ frame_needed = 0, uses_anonymous_args = 0
 363              	.LVL36:
 364 0000 10B5     		push	{r4, lr}
 365              		.cfi_def_cfa_offset 8
 366              		.cfi_offset 4, -8
 367              		.cfi_offset 14, -4
 368 0002 0446     		mov	r4, r0
 239:PSC_Proc_CameraShot.c ****     PSC_RET ret;
 240:PSC_Proc_CameraShot.c ****     
 241:PSC_Proc_CameraShot.c ****     ret = PSC_Comm_SndCommand(DEV_ID_CAM,load_data,load_data_size);
 369              		.loc 1 241 0
 370 0004 0120     		movs	r0, #1
 371              	.LVL37:
 372 0006 0849     		ldr	r1, .L43
 373 0008 4022     		movs	r2, #64
 374 000a FFF7FEFF 		bl	PSC_Comm_SndCommand
 375              	.LVL38:
 242:PSC_Proc_CameraShot.c ****     if( ret != PSC_RET_SUCCESS )
 376              		.loc 1 242 0
 377 000e 48B9     		cbnz	r0, .L40
 243:PSC_Proc_CameraShot.c ****     {
 244:PSC_Proc_CameraShot.c ****         return ret;
 245:PSC_Proc_CameraShot.c ****         
 246:PSC_Proc_CameraShot.c ****     }
 247:PSC_Proc_CameraShot.c **** 
 248:PSC_Proc_CameraShot.c ****     ret = PSC_CMD_SET_DEVICE_ID(pstData,DEV_ID_CAM);
 378              		.loc 1 248 0
 379 0010 2046     		mov	r0, r4
ARM GAS  C:\Users\youkan\AppData\Local\Temp\ccJr5ZFd.s 			page 12


 380              	.LVL39:
 381 0012 0121     		movs	r1, #1
 382 0014 FFF7FEFF 		bl	PSC_CMD_SET_DEVICE_ID
 383              	.LVL40:
 249:PSC_Proc_CameraShot.c ****     if( ret != PSC_RET_SUCCESS )
 384              		.loc 1 249 0
 385 0018 28B9     		cbnz	r0, .L41
 250:PSC_Proc_CameraShot.c ****     {
 251:PSC_Proc_CameraShot.c ****         return ret;
 252:PSC_Proc_CameraShot.c ****     }
 253:PSC_Proc_CameraShot.c ****     
 254:PSC_Proc_CameraShot.c ****     svPSC_PROC_STATE_CAMERASHOT++;
 386              		.loc 1 254 0
 387 001a 044A     		ldr	r2, .L43+4
 388 001c 1378     		ldrb	r3, [r2]	@ zero_extendqisi2
 389 001e 0133     		adds	r3, r3, #1
 390 0020 1370     		strb	r3, [r2]
 255:PSC_Proc_CameraShot.c ****     return PSC_RET_SUCCESS;
 391              		.loc 1 255 0
 392 0022 10BD     		pop	{r4, pc}
 393              	.LVL41:
 394              	.L40:
 395 0024 10BD     		pop	{r4, pc}
 396              	.LVL42:
 397              	.L41:
 256:PSC_Proc_CameraShot.c **** }
 398              		.loc 1 256 0
 399 0026 10BD     		pop	{r4, pc}
 400              	.LVL43:
 401              	.L44:
 402              		.align	2
 403              	.L43:
 404 0028 1C000000 		.word	.LANCHOR1+28
 405 002c 00000000 		.word	.LANCHOR0
 406              		.cfi_endproc
 407              	.LFE71:
 408              		.size	psc_Proc_CameraShot_LoadData, .-psc_Proc_CameraShot_LoadData
 409              		.section	.text.PSC_Proc_CameraShot_Main,"ax",%progbits
 410              		.align	2
 411              		.global	PSC_Proc_CameraShot_Main
 412              		.thumb
 413              		.thumb_func
 414              		.type	PSC_Proc_CameraShot_Main, %function
 415              	PSC_Proc_CameraShot_Main:
 416              	.LFB64:
  62:PSC_Proc_CameraShot.c ****     PSC_RET ret;
 417              		.loc 1 62 0
 418              		.cfi_startproc
 419              		@ args = 0, pretend = 0, frame = 0
 420              		@ frame_needed = 0, uses_anonymous_args = 0
 421              	.LVL44:
 422 0000 10B5     		push	{r4, lr}
 423              		.cfi_def_cfa_offset 8
 424              		.cfi_offset 4, -8
 425              		.cfi_offset 14, -4
 426 0002 0446     		mov	r4, r0
 427              	.LVL45:
ARM GAS  C:\Users\youkan\AppData\Local\Temp\ccJr5ZFd.s 			page 13


  67:PSC_Proc_CameraShot.c ****     {
 428              		.loc 1 67 0
 429 0004 244B     		ldr	r3, .L58
 430 0006 1B78     		ldrb	r3, [r3]	@ zero_extendqisi2
 431 0008 072B     		cmp	r3, #7
 432 000a 3ED8     		bhi	.L56
 433 000c DFE803F0 		tbb	[pc, r3]
 434              	.L48:
 435 0010 06       		.byte	(.L47-.L48)/2
 436 0011 0E       		.byte	(.L49-.L48)/2
 437 0012 16       		.byte	(.L50-.L48)/2
 438 0013 1E       		.byte	(.L51-.L48)/2
 439 0014 26       		.byte	(.L52-.L48)/2
 440 0015 2E       		.byte	(.L53-.L48)/2
 441 0016 36       		.byte	(.L54-.L48)/2
 442 0017 04       		.byte	(.L55-.L48)/2
 443              		.p2align 1
 444              	.L55:
  65:PSC_Proc_CameraShot.c ****     
 445              		.loc 1 65 0
 446 0018 0024     		movs	r4, #0
 447 001a 37E0     		b	.L46
 448              	.L47:
  70:PSC_Proc_CameraShot.c ****             ret = psc_Proc_CameraShot_Get(pstData);
 449              		.loc 1 70 0
 450 001c 1F48     		ldr	r0, .L58+4
 451              	.LVL46:
 452 001e FFF7FEFF 		bl	DBG_printf
 453              	.LVL47:
  71:PSC_Proc_CameraShot.c ****             break;
 454              		.loc 1 71 0
 455 0022 2046     		mov	r0, r4
 456 0024 FFF7FEFF 		bl	psc_Proc_CameraShot_Get
 457              	.LVL48:
 458 0028 0446     		mov	r4, r0
 459              	.LVL49:
  72:PSC_Proc_CameraShot.c ****         case PR_STATE_CS_GET:
 460              		.loc 1 72 0
 461 002a 2FE0     		b	.L46
 462              	.LVL50:
 463              	.L49:
  74:PSC_Proc_CameraShot.c ****             ret = psc_Proc_CameraShot_ResetCamera(pstData);
 464              		.loc 1 74 0
 465 002c 1C48     		ldr	r0, .L58+8
 466              	.LVL51:
 467 002e FFF7FEFF 		bl	DBG_printf
 468              	.LVL52:
  75:PSC_Proc_CameraShot.c ****             break;
 469              		.loc 1 75 0
 470 0032 2046     		mov	r0, r4
 471 0034 FFF7FEFF 		bl	psc_Proc_CameraShot_ResetCamera
 472              	.LVL53:
 473 0038 0446     		mov	r4, r0
 474              	.LVL54:
  76:PSC_Proc_CameraShot.c ****         case PR_STATE_CS_RESET_CAMERA:
 475              		.loc 1 76 0
 476 003a 27E0     		b	.L46
ARM GAS  C:\Users\youkan\AppData\Local\Temp\ccJr5ZFd.s 			page 14


 477              	.LVL55:
 478              	.L50:
  78:PSC_Proc_CameraShot.c ****             ret = psc_Proc_CameraShot_Baurate(pstData);
 479              		.loc 1 78 0
 480 003c 1948     		ldr	r0, .L58+12
 481              	.LVL56:
 482 003e FFF7FEFF 		bl	DBG_printf
 483              	.LVL57:
  79:PSC_Proc_CameraShot.c ****             break;
 484              		.loc 1 79 0
 485 0042 2046     		mov	r0, r4
 486 0044 FFF7FEFF 		bl	psc_Proc_CameraShot_Baurate
 487              	.LVL58:
 488 0048 0446     		mov	r4, r0
 489              	.LVL59:
  80:PSC_Proc_CameraShot.c ****         case PR_STATE_CS_BAURATE:
 490              		.loc 1 80 0
 491 004a 1FE0     		b	.L46
 492              	.LVL60:
 493              	.L51:
  82:PSC_Proc_CameraShot.c ****             ret = psc_Proc_CameraShot_ConfigDataSize(pstData);
 494              		.loc 1 82 0
 495 004c 1648     		ldr	r0, .L58+16
 496              	.LVL61:
 497 004e FFF7FEFF 		bl	DBG_printf
 498              	.LVL62:
  83:PSC_Proc_CameraShot.c ****             break;
 499              		.loc 1 83 0
 500 0052 2046     		mov	r0, r4
 501 0054 FFF7FEFF 		bl	psc_Proc_CameraShot_ConfigDataSize
 502              	.LVL63:
 503 0058 0446     		mov	r4, r0
 504              	.LVL64:
  84:PSC_Proc_CameraShot.c ****         case PR_STATE_CS_CONFIG_DATASIZE:
 505              		.loc 1 84 0
 506 005a 17E0     		b	.L46
 507              	.LVL65:
 508              	.L52:
  86:PSC_Proc_CameraShot.c ****             ret = psc_Proc_CameraShot_TakePicture(pstData);
 509              		.loc 1 86 0
 510 005c 1348     		ldr	r0, .L58+20
 511              	.LVL66:
 512 005e FFF7FEFF 		bl	DBG_printf
 513              	.LVL67:
  87:PSC_Proc_CameraShot.c ****             break;
 514              		.loc 1 87 0
 515 0062 2046     		mov	r0, r4
 516 0064 FFF7FEFF 		bl	psc_Proc_CameraShot_TakePicture
 517              	.LVL68:
 518 0068 0446     		mov	r4, r0
 519              	.LVL69:
  88:PSC_Proc_CameraShot.c ****         case PR_STATE_CS_TAKE_PICTURE:
 520              		.loc 1 88 0
 521 006a 0FE0     		b	.L46
 522              	.LVL70:
 523              	.L53:
  90:PSC_Proc_CameraShot.c ****             ret = psc_Proc_CameraShot_LoadData(pstData);
ARM GAS  C:\Users\youkan\AppData\Local\Temp\ccJr5ZFd.s 			page 15


 524              		.loc 1 90 0
 525 006c 1048     		ldr	r0, .L58+24
 526              	.LVL71:
 527 006e FFF7FEFF 		bl	DBG_printf
 528              	.LVL72:
  91:PSC_Proc_CameraShot.c ****             break;
 529              		.loc 1 91 0
 530 0072 2046     		mov	r0, r4
 531 0074 FFF7FEFF 		bl	psc_Proc_CameraShot_LoadData
 532              	.LVL73:
 533 0078 0446     		mov	r4, r0
 534              	.LVL74:
  92:PSC_Proc_CameraShot.c ****         case PR_STATE_CS_LOAD_DATA:
 535              		.loc 1 92 0
 536 007a 07E0     		b	.L46
 537              	.LVL75:
 538              	.L54:
  94:PSC_Proc_CameraShot.c ****             ret = psc_Proc_CameraShot_Complete();
 539              		.loc 1 94 0
 540 007c 0D48     		ldr	r0, .L58+28
 541              	.LVL76:
 542 007e FFF7FEFF 		bl	DBG_printf
 543              	.LVL77:
  95:PSC_Proc_CameraShot.c ****             break;
 544              		.loc 1 95 0
 545 0082 FFF7FEFF 		bl	psc_Proc_CameraShot_Complete
 546              	.LVL78:
 547 0086 0446     		mov	r4, r0
 548              	.LVL79:
  96:PSC_Proc_CameraShot.c ****         case PR_STATE_CS_MAX:
 549              		.loc 1 96 0
 550 0088 00E0     		b	.L46
 551              	.LVL80:
 552              	.L56:
 100:PSC_Proc_CameraShot.c ****             break;
 553              		.loc 1 100 0
 554 008a 0124     		movs	r4, #1
 555              	.LVL81:
 556              	.L46:
 104:PSC_Proc_CameraShot.c **** //    if( ret == PSC_RET_SUCCESS )
 557              		.loc 1 104 0
 558 008c 4FF4FA70 		mov	r0, #500
 559 0090 FFF7FEFF 		bl	CyDelay
 560              	.LVL82:
 111:PSC_Proc_CameraShot.c **** 
 561              		.loc 1 111 0
 562 0094 2046     		mov	r0, r4
 563 0096 10BD     		pop	{r4, pc}
 564              	.LVL83:
 565              	.L59:
 566              		.align	2
 567              	.L58:
 568 0098 00000000 		.word	.LANCHOR0
 569 009c 00000000 		.word	.LC0
 570 00a0 18000000 		.word	.LC1
 571 00a4 30000000 		.word	.LC2
 572 00a8 48000000 		.word	.LC3
ARM GAS  C:\Users\youkan\AppData\Local\Temp\ccJr5ZFd.s 			page 16


 573 00ac 64000000 		.word	.LC4
 574 00b0 80000000 		.word	.LC5
 575 00b4 A0000000 		.word	.LC6
 576              		.cfi_endproc
 577              	.LFE64:
 578              		.size	PSC_Proc_CameraShot_Main, .-PSC_Proc_CameraShot_Main
 579              		.comm	gsvPSC_PROC_STATE,1,1
 580              		.data
 581              		.align	2
 582              		.set	.LANCHOR1,. + 0
 583              		.type	get, %object
 584              		.size	get, 4
 585              	get:
 586 0000 56       		.byte	86
 587 0001 00       		.byte	0
 588 0002 11       		.byte	17
 589 0003 00       		.byte	0
 590              		.type	reset_camera, %object
 591              		.size	reset_camera, 4
 592              	reset_camera:
 593 0004 56       		.byte	86
 594 0005 00       		.byte	0
 595 0006 26       		.byte	38
 596 0007 00       		.byte	0
 597              		.type	config_datasize, %object
 598              		.size	config_datasize, 9
 599              	config_datasize:
 600 0008 56       		.byte	86
 601 0009 00       		.byte	0
 602 000a 31       		.byte	49
 603 000b 05       		.byte	5
 604 000c 04       		.byte	4
 605 000d 01       		.byte	1
 606 000e 00       		.byte	0
 607 000f 19       		.byte	25
 608 0010 00       		.byte	0
 609 0011 000000   		.space	3
 610              		.type	take_picture, %object
 611              		.size	take_picture, 5
 612              	take_picture:
 613 0014 56       		.byte	86
 614 0015 00       		.byte	0
 615 0016 36       		.byte	54
 616 0017 01       		.byte	1
 617 0018 00       		.byte	0
 618 0019 000000   		.space	3
 619              		.type	load_data, %object
 620              		.size	load_data, 16
 621              	load_data:
 622 001c 56       		.byte	86
 623 001d 00       		.byte	0
 624 001e 32       		.byte	50
 625 001f 0C       		.byte	12
 626 0020 00       		.byte	0
 627 0021 0A       		.byte	10
 628 0022 00       		.byte	0
 629 0023 00       		.byte	0
ARM GAS  C:\Users\youkan\AppData\Local\Temp\ccJr5ZFd.s 			page 17


 630 0024 00       		.byte	0
 631 0025 00       		.byte	0
 632 0026 00       		.byte	0
 633 0027 00       		.byte	0
 634 0028 CA       		.byte	-54
 635 0029 6C       		.byte	108
 636 002a 00       		.byte	0
 637 002b FF       		.byte	-1
 638              		.section	.rodata.str1.4,"aMS",%progbits,1
 639              		.align	2
 640              	.LC0:
 641 0000 54524143 		.ascii	"TRACE Proc CS Init \012\015\000"
 641      45205072 
 641      6F632043 
 641      5320496E 
 641      6974200A 
 642 0016 0000     		.space	2
 643              	.LC1:
 644 0018 54524143 		.ascii	"TRACE Proc CS Get \012\015\000"
 644      45205072 
 644      6F632043 
 644      53204765 
 644      74200A0D 
 645 002d 000000   		.space	3
 646              	.LC2:
 647 0030 54524143 		.ascii	"TRACE Proc CS Camera \012\015\000"
 647      45205072 
 647      6F632043 
 647      53204361 
 647      6D657261 
 648              	.LC3:
 649 0048 54524143 		.ascii	"TRACE Proc CS Baurate \012\015\000"
 649      45205072 
 649      6F632043 
 649      53204261 
 649      75726174 
 650 0061 000000   		.space	3
 651              	.LC4:
 652 0064 54524143 		.ascii	"TRACE Proc CS Datasize \012\015\000"
 652      45205072 
 652      6F632043 
 652      53204461 
 652      74617369 
 653 007e 0000     		.space	2
 654              	.LC5:
 655 0080 54524143 		.ascii	"TRACE Proc CS take picture \012\015\000"
 655      45205072 
 655      6F632043 
 655      53207461 
 655      6B652070 
 656 009e 0000     		.space	2
 657              	.LC6:
 658 00a0 54524143 		.ascii	"TRACE Proc CS Load Data \012\015\000"
 658      45205072 
 658      6F632043 
 658      53204C6F 
 658      61642044 
ARM GAS  C:\Users\youkan\AppData\Local\Temp\ccJr5ZFd.s 			page 18


 659 00bb 00       		.bss
 660              		.set	.LANCHOR0,. + 0
 661              		.type	svPSC_PROC_STATE_CAMERASHOT, %object
 662              		.size	svPSC_PROC_STATE_CAMERASHOT, 1
 663              	svPSC_PROC_STATE_CAMERASHOT:
 664 0000 00       		.space	1
 665              		.text
 666              	.Letext0:
 667              		.file 2 "PSC_Types.h"
 668              		.file 3 "PSC_CMD_API.h"
 669              		.file 4 "c:\\program files (x86)\\cypress\\psoc creator\\4.0\\psoc creator\\import\\gnu\\arm\\4.9.
 670              		.file 5 "c:\\program files (x86)\\cypress\\psoc creator\\4.0\\psoc creator\\import\\gnu\\arm\\4.9.
 671              		.file 6 "Generated_Source\\PSoC5/cytypes.h"
 672              		.file 7 "PSC_Proc_Common.h"
 673              		.file 8 "PSC_Camera.h"
 674              		.file 9 "Generated_Source\\PSoC5/core_cm3.h"
 675              		.file 10 "PSC_Communicate.h"
 676              		.file 11 "Debugs.h"
 677              		.file 12 "Generated_Source\\PSoC5/CyLib.h"