ARM GAS  C:\Users\youkan\AppData\Local\Temp\ccDQABZg.s 			page 1


   1              		.syntax unified
   2              		.cpu cortex-m3
   3              		.fpu softvfp
   4              		.eabi_attribute 20, 1
   5              		.eabi_attribute 21, 1
   6              		.eabi_attribute 23, 3
   7              		.eabi_attribute 24, 1
   8              		.eabi_attribute 25, 1
   9              		.eabi_attribute 26, 1
  10              		.eabi_attribute 30, 1
  11              		.eabi_attribute 34, 1
  12              		.eabi_attribute 18, 4
  13              		.thumb
  14              		.file	"PSC_CMD_API.c"
  15              		.text
  16              	.Ltext0:
  17              		.cfi_sections	.debug_frame
  18              		.section	.text.PSC_CMD_CREATE_CONTEXT,"ax",%progbits
  19              		.align	2
  20              		.global	PSC_CMD_CREATE_CONTEXT
  21              		.thumb
  22              		.thumb_func
  23              		.type	PSC_CMD_CREATE_CONTEXT, %function
  24              	PSC_CMD_CREATE_CONTEXT:
  25              	.LFB0:
  26              		.file 1 "PSC_CMD_API.c"
   1:PSC_CMD_API.c **** /* ========================================
   2:PSC_CMD_API.c ****  *
   3:PSC_CMD_API.c ****  * Copyright YOUR COMPANY, THE YEAR
   4:PSC_CMD_API.c ****  * All Rights Reserved
   5:PSC_CMD_API.c ****  * UNPUBLISHED, LICENSED SOFTWARE.
   6:PSC_CMD_API.c ****  *
   7:PSC_CMD_API.c ****  * CONFIDENTIAL AND PROPRIETARY INFORMATION
   8:PSC_CMD_API.c ****  * WHICH IS THE PROPERTY OF your company.
   9:PSC_CMD_API.c ****  *
  10:PSC_CMD_API.c ****  * ========================================
  11:PSC_CMD_API.c **** */
  12:PSC_CMD_API.c **** 
  13:PSC_CMD_API.c **** /* [] END OF FILE */
  14:PSC_CMD_API.c **** 
  15:PSC_CMD_API.c **** #include "PSC_CMD_API.h"
  16:PSC_CMD_API.c **** #include "PSC_Types.h"
  17:PSC_CMD_API.c **** 
  18:PSC_CMD_API.c **** typedef struct PSC_CMD_RCV_PROCtag
  19:PSC_CMD_API.c **** {
  20:PSC_CMD_API.c ****     unsigned    char    StartIndex;       //WriteIndex
  21:PSC_CMD_API.c ****     unsigned    char    EndIndex;
  22:PSC_CMD_API.c ****     PSC_RET            (*pfProc)(PSC_ST_CMD*,PSC_CHAR*);
  23:PSC_CMD_API.c **** }PSC_CMD_RCV_PROC;
  24:PSC_CMD_API.c **** 
  25:PSC_CMD_API.c **** PSC_RET PSC_CMD_CREATE_CONTEXT(PSC_ST_CMD*);
  26:PSC_CMD_API.c **** PSC_RET PSC_CMD_SET_UPDATE_FLG(PSC_ST_CMD*,PSC_BOOL);
  27:PSC_CMD_API.c **** PSC_RET PSC_CMD_SET_DEVICE_ID(PSC_ST_CMD*,DEV_ID);
  28:PSC_CMD_API.c **** PSC_RET PSC_CMD_SET_COMMAND(PSC_ST_CMD*,PSC_COMMAND*);
  29:PSC_CMD_API.c **** PSC_RET PSC_CMD_GET_DEVICE_ID(PSC_ST_CMD*,DEV_ID*);
  30:PSC_CMD_API.c **** PSC_RET PSC_CMD_GET_COMMAND(PSC_ST_CMD*,PSC_COMMAND*);
  31:PSC_CMD_API.c **** PSC_RET PSC_CMD_GET_UPDATE_FLG(PSC_ST_CMD*,PSC_BOOL*);
ARM GAS  C:\Users\youkan\AppData\Local\Temp\ccDQABZg.s 			page 2


  32:PSC_CMD_API.c **** PSC_RET PSC_CMD_RECV_SETUP(PSC_ST_CMD*);
  33:PSC_CMD_API.c **** PSC_RET PSC_CMD_SET_RECV_DATA(PSC_ST_CMD*,PSC_CHAR*);
  34:PSC_CMD_API.c **** 
  35:PSC_CMD_API.c **** PSC_RET psc_cmd_StateUpdate(PSC_ST_CMD*,PSC_CHAR*);
  36:PSC_CMD_API.c **** 
  37:PSC_CMD_API.c **** PSC_RET psc_cmd_Set_Recv_Header(PSC_ST_CMD*,PSC_CHAR*);
  38:PSC_CMD_API.c **** PSC_RET psc_cmd_Set_Recv_Body(PSC_ST_CMD*,PSC_CHAR*);
  39:PSC_CMD_API.c **** PSC_RET psc_cmd_Set_Recv_End(PSC_ST_CMD*,PSC_CHAR*);
  40:PSC_CMD_API.c **** 
  41:PSC_CMD_API.c **** PSC_RET psc_cmd_Set_Recv_Data(PSC_ST_CMD*,PSC_CHAR*);
  42:PSC_CMD_API.c **** 
  43:PSC_CMD_API.c **** PSC_CMD_RCV_STATE svPSC_CMD_RCV_STATE;
  44:PSC_CMD_API.c **** 
  45:PSC_CMD_API.c **** static PSC_CMD_RCV_PROC ssaPSC_CMD_RCV_PROC[PSC_CMD_RCV_ST_MAX] = 
  46:PSC_CMD_API.c **** {
  47:PSC_CMD_API.c ****     {   0                                                           ,
  48:PSC_CMD_API.c ****         0                                                           ,
  49:PSC_CMD_API.c ****         0                                                       }   ,
  50:PSC_CMD_API.c ****     {   0                                                           ,
  51:PSC_CMD_API.c ****         SZ_COMMAND_HEADER                                           ,
  52:PSC_CMD_API.c ****         &psc_cmd_Set_Recv_Header                                }   ,
  53:PSC_CMD_API.c ****     {   SZ_COMMAND_HEADER                                           ,
  54:PSC_CMD_API.c ****         SZ_COMMAND_HEADER  +   SZ_COMMAND_BODY                      ,
  55:PSC_CMD_API.c ****         &psc_cmd_Set_Recv_Body                                  }   ,
  56:PSC_CMD_API.c ****     {   SZ_COMMAND_HEADER  +   SZ_COMMAND_BODY                      ,
  57:PSC_CMD_API.c ****         SZ_COMMAND_HEADER  +   SZ_COMMAND_BODY +   SZ_COMMAND_END   ,
  58:PSC_CMD_API.c ****         &psc_cmd_Set_Recv_End                                   }   ,
  59:PSC_CMD_API.c ****     {   SZ_COMMAND_FULL                                             ,
  60:PSC_CMD_API.c ****         SZ_COMMAND_FULL                                             ,
  61:PSC_CMD_API.c ****         0                                                       }
  62:PSC_CMD_API.c **** };
  63:PSC_CMD_API.c **** 
  64:PSC_CMD_API.c **** 
  65:PSC_CMD_API.c **** 
  66:PSC_CMD_API.c **** PSC_RET PSC_CMD_CREATE_CONTEXT(PSC_ST_CMD* pstData)
  67:PSC_CMD_API.c **** {
  27              		.loc 1 67 0
  28              		.cfi_startproc
  29              		@ args = 0, pretend = 0, frame = 0
  30              		@ frame_needed = 0, uses_anonymous_args = 0
  31              	.LVL0:
  32 0000 08B5     		push	{r3, lr}
  33              		.cfi_def_cfa_offset 8
  34              		.cfi_offset 3, -8
  35              		.cfi_offset 14, -4
  68:PSC_CMD_API.c ****     memset(pstData,0x00,sizeof(PSC_ST_CMD));
  36              		.loc 1 68 0
  37 0002 0021     		movs	r1, #0
  38 0004 3822     		movs	r2, #56
  39 0006 FFF7FEFF 		bl	memset
  40              	.LVL1:
  69:PSC_CMD_API.c ****     return PSC_RET_SUCCESS;
  70:PSC_CMD_API.c **** }
  41              		.loc 1 70 0
  42 000a 0020     		movs	r0, #0
  43 000c 08BD     		pop	{r3, pc}
  44              		.cfi_endproc
ARM GAS  C:\Users\youkan\AppData\Local\Temp\ccDQABZg.s 			page 3


  45              	.LFE0:
  46              		.size	PSC_CMD_CREATE_CONTEXT, .-PSC_CMD_CREATE_CONTEXT
  47 000e 00BF     		.section	.text.PSC_CMD_RECV_SETUP,"ax",%progbits
  48              		.align	2
  49              		.global	PSC_CMD_RECV_SETUP
  50              		.thumb
  51              		.thumb_func
  52              		.type	PSC_CMD_RECV_SETUP, %function
  53              	PSC_CMD_RECV_SETUP:
  54              	.LFB1:
  71:PSC_CMD_API.c **** PSC_RET PSC_CMD_RECV_SETUP(PSC_ST_CMD* pstData)
  72:PSC_CMD_API.c **** {
  55              		.loc 1 72 0
  56              		.cfi_startproc
  57              		@ args = 0, pretend = 0, frame = 0
  58              		@ frame_needed = 0, uses_anonymous_args = 0
  59              	.LVL2:
  60 0000 10B5     		push	{r4, lr}
  61              		.cfi_def_cfa_offset 8
  62              		.cfi_offset 4, -8
  63              		.cfi_offset 14, -4
  73:PSC_CMD_API.c ****     pstData->Data.RecvDataSize = 0;
  64              		.loc 1 73 0
  65 0002 0024     		movs	r4, #0
  66 0004 0471     		strb	r4, [r0, #4]
  74:PSC_CMD_API.c ****     svPSC_CMD_RCV_STATE = PSC_CMD_RCV_ST_INIT;
  67              		.loc 1 74 0
  68 0006 044B     		ldr	r3, .L5
  69 0008 1C70     		strb	r4, [r3]
  75:PSC_CMD_API.c ****     memset(pstData->Data.recv_data,0x00,sizeof(pstData->Data.recv_data));
  70              		.loc 1 75 0
  71 000a 0C30     		adds	r0, r0, #12
  72              	.LVL3:
  73 000c 2146     		mov	r1, r4
  74 000e 2422     		movs	r2, #36
  75 0010 FFF7FEFF 		bl	memset
  76              	.LVL4:
  76:PSC_CMD_API.c ****     return PSC_RET_SUCCESS;
  77:PSC_CMD_API.c **** }
  77              		.loc 1 77 0
  78 0014 2046     		mov	r0, r4
  79 0016 10BD     		pop	{r4, pc}
  80              	.L6:
  81              		.align	2
  82              	.L5:
  83 0018 00000000 		.word	svPSC_CMD_RCV_STATE
  84              		.cfi_endproc
  85              	.LFE1:
  86              		.size	PSC_CMD_RECV_SETUP, .-PSC_CMD_RECV_SETUP
  87              		.section	.text.PSC_CMD_GET_RCV_STATE,"ax",%progbits
  88              		.align	2
  89              		.global	PSC_CMD_GET_RCV_STATE
  90              		.thumb
  91              		.thumb_func
  92              		.type	PSC_CMD_GET_RCV_STATE, %function
  93              	PSC_CMD_GET_RCV_STATE:
  94              	.LFB2:
ARM GAS  C:\Users\youkan\AppData\Local\Temp\ccDQABZg.s 			page 4


  78:PSC_CMD_API.c **** 
  79:PSC_CMD_API.c **** PSC_CMD_RCV_STATE PSC_CMD_GET_RCV_STATE()
  80:PSC_CMD_API.c **** {
  95              		.loc 1 80 0
  96              		.cfi_startproc
  97              		@ args = 0, pretend = 0, frame = 0
  98              		@ frame_needed = 0, uses_anonymous_args = 0
  99              		@ link register save eliminated.
  81:PSC_CMD_API.c ****     return svPSC_CMD_RCV_STATE;
  82:PSC_CMD_API.c **** }
 100              		.loc 1 82 0
 101 0000 014B     		ldr	r3, .L8
 102 0002 1878     		ldrb	r0, [r3]	@ zero_extendqisi2
 103 0004 7047     		bx	lr
 104              	.L9:
 105 0006 00BF     		.align	2
 106              	.L8:
 107 0008 00000000 		.word	svPSC_CMD_RCV_STATE
 108              		.cfi_endproc
 109              	.LFE2:
 110              		.size	PSC_CMD_GET_RCV_STATE, .-PSC_CMD_GET_RCV_STATE
 111              		.section	.text.PSC_CMD_PARSE_COMMAND,"ax",%progbits
 112              		.align	2
 113              		.global	PSC_CMD_PARSE_COMMAND
 114              		.thumb
 115              		.thumb_func
 116              		.type	PSC_CMD_PARSE_COMMAND, %function
 117              	PSC_CMD_PARSE_COMMAND:
 118              	.LFB3:
  83:PSC_CMD_API.c **** 
  84:PSC_CMD_API.c **** PSC_RET PSC_CMD_PARSE_COMMAND(PSC_ST_CMD* pstData)
  85:PSC_CMD_API.c **** {
 119              		.loc 1 85 0
 120              		.cfi_startproc
 121              		@ args = 0, pretend = 0, frame = 0
 122              		@ frame_needed = 0, uses_anonymous_args = 0
 123              		@ link register save eliminated.
 124              	.LVL5:
  86:PSC_CMD_API.c ****     pstData->Data.command = COMM_REQ_CAMERASHOT;
 125              		.loc 1 86 0
 126 0000 0123     		movs	r3, #1
 127 0002 8360     		str	r3, [r0, #8]
  87:PSC_CMD_API.c ****     return PSC_RET_SUCCESS;
  88:PSC_CMD_API.c **** }
 128              		.loc 1 88 0
 129 0004 0020     		movs	r0, #0
 130              	.LVL6:
 131 0006 7047     		bx	lr
 132              		.cfi_endproc
 133              	.LFE3:
 134              		.size	PSC_CMD_PARSE_COMMAND, .-PSC_CMD_PARSE_COMMAND
 135              		.section	.text.PSC_CMD_GET_COMMAND,"ax",%progbits
 136              		.align	2
 137              		.global	PSC_CMD_GET_COMMAND
 138              		.thumb
 139              		.thumb_func
 140              		.type	PSC_CMD_GET_COMMAND, %function
ARM GAS  C:\Users\youkan\AppData\Local\Temp\ccDQABZg.s 			page 5


 141              	PSC_CMD_GET_COMMAND:
 142              	.LFB4:
  89:PSC_CMD_API.c **** PSC_RET PSC_CMD_GET_COMMAND(PSC_ST_CMD* pstData,PSC_COMMAND* pStr)
  90:PSC_CMD_API.c **** {
 143              		.loc 1 90 0
 144              		.cfi_startproc
 145              		@ args = 0, pretend = 0, frame = 0
 146              		@ frame_needed = 0, uses_anonymous_args = 0
 147              		@ link register save eliminated.
 148              	.LVL7:
  91:PSC_CMD_API.c ****     memcpy(pStr,&pstData->Data.command,sizeof(PSC_COMMAND));
 149              		.loc 1 91 0
 150 0000 8368     		ldr	r3, [r0, #8]	@ unaligned
 151 0002 0B60     		str	r3, [r1]	@ unaligned
  92:PSC_CMD_API.c ****     return PSC_RET_SUCCESS;
  93:PSC_CMD_API.c **** }
 152              		.loc 1 93 0
 153 0004 0020     		movs	r0, #0
 154              	.LVL8:
 155 0006 7047     		bx	lr
 156              		.cfi_endproc
 157              	.LFE4:
 158              		.size	PSC_CMD_GET_COMMAND, .-PSC_CMD_GET_COMMAND
 159              		.section	.text.PSC_CMD_GET_DEVICE_ID,"ax",%progbits
 160              		.align	2
 161              		.global	PSC_CMD_GET_DEVICE_ID
 162              		.thumb
 163              		.thumb_func
 164              		.type	PSC_CMD_GET_DEVICE_ID, %function
 165              	PSC_CMD_GET_DEVICE_ID:
 166              	.LFB5:
  94:PSC_CMD_API.c **** 
  95:PSC_CMD_API.c **** PSC_RET PSC_CMD_GET_DEVICE_ID(PSC_ST_CMD* pstData,DEV_ID* pID)
  96:PSC_CMD_API.c **** {
 167              		.loc 1 96 0
 168              		.cfi_startproc
 169              		@ args = 0, pretend = 0, frame = 0
 170              		@ frame_needed = 0, uses_anonymous_args = 0
 171              		@ link register save eliminated.
 172              	.LVL9:
  97:PSC_CMD_API.c ****     *pID = pstData->dev_id;
 173              		.loc 1 97 0
 174 0000 0378     		ldrb	r3, [r0]	@ zero_extendqisi2
 175 0002 0B70     		strb	r3, [r1]
  98:PSC_CMD_API.c ****     return PSC_RET_SUCCESS;
  99:PSC_CMD_API.c **** }
 176              		.loc 1 99 0
 177 0004 0020     		movs	r0, #0
 178              	.LVL10:
 179 0006 7047     		bx	lr
 180              		.cfi_endproc
 181              	.LFE5:
 182              		.size	PSC_CMD_GET_DEVICE_ID, .-PSC_CMD_GET_DEVICE_ID
 183              		.section	.text.PSC_CMD_SET_DEVICE_ID,"ax",%progbits
 184              		.align	2
 185              		.global	PSC_CMD_SET_DEVICE_ID
 186              		.thumb
ARM GAS  C:\Users\youkan\AppData\Local\Temp\ccDQABZg.s 			page 6


 187              		.thumb_func
 188              		.type	PSC_CMD_SET_DEVICE_ID, %function
 189              	PSC_CMD_SET_DEVICE_ID:
 190              	.LFB6:
 100:PSC_CMD_API.c **** 
 101:PSC_CMD_API.c **** PSC_RET PSC_CMD_SET_DEVICE_ID(PSC_ST_CMD* pstData,DEV_ID ID)
 102:PSC_CMD_API.c **** {
 191              		.loc 1 102 0
 192              		.cfi_startproc
 193              		@ args = 0, pretend = 0, frame = 0
 194              		@ frame_needed = 0, uses_anonymous_args = 0
 195              		@ link register save eliminated.
 196              	.LVL11:
 103:PSC_CMD_API.c ****     pstData->dev_id = ID;
 197              		.loc 1 103 0
 198 0000 0170     		strb	r1, [r0]
 104:PSC_CMD_API.c ****     return PSC_RET_SUCCESS;
 105:PSC_CMD_API.c **** }
 199              		.loc 1 105 0
 200 0002 0020     		movs	r0, #0
 201              	.LVL12:
 202 0004 7047     		bx	lr
 203              		.cfi_endproc
 204              	.LFE6:
 205              		.size	PSC_CMD_SET_DEVICE_ID, .-PSC_CMD_SET_DEVICE_ID
 206 0006 00BF     		.section	.text.PSC_CMD_SET_COMMAND,"ax",%progbits
 207              		.align	2
 208              		.global	PSC_CMD_SET_COMMAND
 209              		.thumb
 210              		.thumb_func
 211              		.type	PSC_CMD_SET_COMMAND, %function
 212              	PSC_CMD_SET_COMMAND:
 213              	.LFB7:
 106:PSC_CMD_API.c **** 
 107:PSC_CMD_API.c **** PSC_RET PSC_CMD_SET_COMMAND(PSC_ST_CMD* pstData,PSC_COMMAND* pStr)
 108:PSC_CMD_API.c **** {
 214              		.loc 1 108 0
 215              		.cfi_startproc
 216              		@ args = 0, pretend = 0, frame = 8
 217              		@ frame_needed = 0, uses_anonymous_args = 0
 218              		@ link register save eliminated.
 219              	.LVL13:
 220 0000 82B0     		sub	sp, sp, #8
 221              		.cfi_def_cfa_offset 8
 222 0002 0246     		mov	r2, r0
 223 0004 02AB     		add	r3, sp, #8
 224 0006 43F8041D 		str	r1, [r3, #-4]!
 109:PSC_CMD_API.c ****     memcpy(&pstData->Data.command,&pStr,sizeof(PSC_COMMAND));
 225              		.loc 1 109 0
 226 000a 1868     		ldr	r0, [r3]	@ unaligned
 227              	.LVL14:
 228 000c 9060     		str	r0, [r2, #8]	@ unaligned
 110:PSC_CMD_API.c ****     return PSC_RET_SUCCESS;
 111:PSC_CMD_API.c **** }
 229              		.loc 1 111 0
 230 000e 0020     		movs	r0, #0
 231 0010 02B0     		add	sp, sp, #8
ARM GAS  C:\Users\youkan\AppData\Local\Temp\ccDQABZg.s 			page 7


 232              		.cfi_def_cfa_offset 0
 233              		@ sp needed
 234 0012 7047     		bx	lr
 235              		.cfi_endproc
 236              	.LFE7:
 237              		.size	PSC_CMD_SET_COMMAND, .-PSC_CMD_SET_COMMAND
 238              		.section	.text.PSC_CMD_SET_RECV_DATA,"ax",%progbits
 239              		.align	2
 240              		.global	PSC_CMD_SET_RECV_DATA
 241              		.thumb
 242              		.thumb_func
 243              		.type	PSC_CMD_SET_RECV_DATA, %function
 244              	PSC_CMD_SET_RECV_DATA:
 245              	.LFB8:
 112:PSC_CMD_API.c **** 
 113:PSC_CMD_API.c **** PSC_RET PSC_CMD_SET_RECV_DATA(PSC_ST_CMD* pstData, PSC_CHAR* pChar)
 114:PSC_CMD_API.c **** {
 246              		.loc 1 114 0
 247              		.cfi_startproc
 248              		@ args = 0, pretend = 0, frame = 0
 249              		@ frame_needed = 0, uses_anonymous_args = 0
 250              	.LVL15:
 251 0000 10B5     		push	{r4, lr}
 252              		.cfi_def_cfa_offset 8
 253              		.cfi_offset 4, -8
 254              		.cfi_offset 14, -4
 115:PSC_CMD_API.c ****     PSC_RET ret;
 116:PSC_CMD_API.c ****     
 117:PSC_CMD_API.c ****     switch(svPSC_CMD_RCV_STATE)
 255              		.loc 1 117 0
 256 0002 144B     		ldr	r3, .L26
 257 0004 1B78     		ldrb	r3, [r3]	@ zero_extendqisi2
 258 0006 042B     		cmp	r3, #4
 259 0008 1ED8     		bhi	.L22
 260 000a DFE803F0 		tbb	[pc, r3]
 261              	.L19:
 262 000e 03       		.byte	(.L18-.L19)/2
 263 000f 09       		.byte	(.L20-.L19)/2
 264 0010 09       		.byte	(.L20-.L19)/2
 265 0011 09       		.byte	(.L20-.L19)/2
 266 0012 13       		.byte	(.L21-.L19)/2
 267 0013 00       		.p2align 1
 268              	.L18:
 118:PSC_CMD_API.c ****     {
 119:PSC_CMD_API.c ****         case PSC_CMD_RCV_ST_INIT:
 120:PSC_CMD_API.c ****             if( *pChar != TX_COMMAND_NONE )
 269              		.loc 1 120 0
 270 0014 0A78     		ldrb	r2, [r1]	@ zero_extendqisi2
 271 0016 6AB1     		cbz	r2, .L21
 121:PSC_CMD_API.c ****             {
 122:PSC_CMD_API.c ****                 svPSC_CMD_RCV_STATE++;
 272              		.loc 1 122 0
 273 0018 0133     		adds	r3, r3, #1
 274 001a 0E4A     		ldr	r2, .L26
 275 001c 1370     		strb	r3, [r2]
 276 001e 09E0     		b	.L21
 277              	.L20:
ARM GAS  C:\Users\youkan\AppData\Local\Temp\ccDQABZg.s 			page 8


 123:PSC_CMD_API.c ****             }
 124:PSC_CMD_API.c ****             break;
 125:PSC_CMD_API.c ****         case PSC_CMD_RCV_ST_HEADER:
 126:PSC_CMD_API.c ****         case PSC_CMD_RCV_ST_BODY:
 127:PSC_CMD_API.c ****         case PSC_CMD_RCV_ST_END:
 128:PSC_CMD_API.c ****             if( ssaPSC_CMD_RCV_PROC[svPSC_CMD_RCV_STATE].EndIndex <= pstData->Data.RecvDataSize )
 278              		.loc 1 128 0
 279 0020 0D4A     		ldr	r2, .L26+4
 280 0022 02EBC302 		add	r2, r2, r3, lsl #3
 281 0026 5478     		ldrb	r4, [r2, #1]	@ zero_extendqisi2
 282 0028 0279     		ldrb	r2, [r0, #4]	@ zero_extendqisi2
 283 002a 9442     		cmp	r4, r2
 284 002c 02D8     		bhi	.L21
 129:PSC_CMD_API.c ****             {
 130:PSC_CMD_API.c ****                 svPSC_CMD_RCV_STATE++;
 285              		.loc 1 130 0
 286 002e 0133     		adds	r3, r3, #1
 287 0030 084A     		ldr	r2, .L26
 288 0032 1370     		strb	r3, [r2]
 289              	.L21:
 131:PSC_CMD_API.c ****             }
 132:PSC_CMD_API.c ****             break;
 133:PSC_CMD_API.c ****         case PSC_CMD_RCV_ST_COMPLETE:
 134:PSC_CMD_API.c ****             break;
 135:PSC_CMD_API.c ****         default:
 136:PSC_CMD_API.c ****             return PSC_RET_INTERNAL_ERROR;
 137:PSC_CMD_API.c ****             break;
 138:PSC_CMD_API.c ****     }
 139:PSC_CMD_API.c ****     
 140:PSC_CMD_API.c ****     if( ssaPSC_CMD_RCV_PROC[svPSC_CMD_RCV_STATE].pfProc == 0)
 290              		.loc 1 140 0
 291 0034 074B     		ldr	r3, .L26
 292 0036 1A78     		ldrb	r2, [r3]	@ zero_extendqisi2
 293 0038 074B     		ldr	r3, .L26+4
 294 003a 03EBC203 		add	r3, r3, r2, lsl #3
 295 003e 5B68     		ldr	r3, [r3, #4]
 296 0040 23B1     		cbz	r3, .L23
 141:PSC_CMD_API.c ****     {
 142:PSC_CMD_API.c ****         return PSC_RET_SUCCESS;
 143:PSC_CMD_API.c ****     }
 144:PSC_CMD_API.c ****     
 145:PSC_CMD_API.c ****     ret = ssaPSC_CMD_RCV_PROC[svPSC_CMD_RCV_STATE].pfProc(pstData,pChar);
 297              		.loc 1 145 0
 298 0042 9847     		blx	r3
 299              	.LVL16:
 146:PSC_CMD_API.c ****     if( ret != PSC_RET_SUCCESS )
 300              		.loc 1 146 0
 301 0044 20B9     		cbnz	r0, .L24
 302 0046 10BD     		pop	{r4, pc}
 303              	.LVL17:
 304              	.L22:
 136:PSC_CMD_API.c ****             break;
 305              		.loc 1 136 0
 306 0048 0120     		movs	r0, #1
 307              	.LVL18:
 308 004a 10BD     		pop	{r4, pc}
 309              	.LVL19:
ARM GAS  C:\Users\youkan\AppData\Local\Temp\ccDQABZg.s 			page 9


 310              	.L23:
 142:PSC_CMD_API.c ****     }
 311              		.loc 1 142 0
 312 004c 0020     		movs	r0, #0
 313              	.LVL20:
 314 004e 10BD     		pop	{r4, pc}
 315              	.LVL21:
 316              	.L24:
 147:PSC_CMD_API.c ****     {
 148:PSC_CMD_API.c ****         return ret;
 149:PSC_CMD_API.c ****     }
 150:PSC_CMD_API.c ****     
 151:PSC_CMD_API.c ****     return PSC_RET_SUCCESS;
 152:PSC_CMD_API.c **** }
 317              		.loc 1 152 0
 318 0050 10BD     		pop	{r4, pc}
 319              	.L27:
 320 0052 00BF     		.align	2
 321              	.L26:
 322 0054 00000000 		.word	svPSC_CMD_RCV_STATE
 323 0058 00000000 		.word	.LANCHOR0
 324              		.cfi_endproc
 325              	.LFE8:
 326              		.size	PSC_CMD_SET_RECV_DATA, .-PSC_CMD_SET_RECV_DATA
 327              		.section	.text.psc_cmd_Set_Recv_Data,"ax",%progbits
 328              		.align	2
 329              		.global	psc_cmd_Set_Recv_Data
 330              		.thumb
 331              		.thumb_func
 332              		.type	psc_cmd_Set_Recv_Data, %function
 333              	psc_cmd_Set_Recv_Data:
 334              	.LFB12:
 153:PSC_CMD_API.c **** 
 154:PSC_CMD_API.c **** PSC_RET psc_cmd_Set_Recv_Header(PSC_ST_CMD* pstData,PSC_CHAR* pChar)
 155:PSC_CMD_API.c **** {
 156:PSC_CMD_API.c ****     PSC_RET ret;
 157:PSC_CMD_API.c ****     ret = psc_cmd_Set_Recv_Data(pstData,pChar);
 158:PSC_CMD_API.c ****     if( ret != PSC_RET_SUCCESS )
 159:PSC_CMD_API.c ****     {
 160:PSC_CMD_API.c ****         return ret;
 161:PSC_CMD_API.c ****     }
 162:PSC_CMD_API.c ****     
 163:PSC_CMD_API.c ****     return  PSC_RET_SUCCESS;
 164:PSC_CMD_API.c **** }
 165:PSC_CMD_API.c **** 
 166:PSC_CMD_API.c **** PSC_RET psc_cmd_Set_Recv_Body(PSC_ST_CMD* pstData,PSC_CHAR* pChar)
 167:PSC_CMD_API.c **** {
 168:PSC_CMD_API.c ****     PSC_RET ret;
 169:PSC_CMD_API.c ****     ret = psc_cmd_Set_Recv_Data(pstData,pChar);
 170:PSC_CMD_API.c ****     if( ret != PSC_RET_SUCCESS )
 171:PSC_CMD_API.c ****     {
 172:PSC_CMD_API.c ****         return ret;
 173:PSC_CMD_API.c ****     }
 174:PSC_CMD_API.c ****     
 175:PSC_CMD_API.c ****     return  PSC_RET_SUCCESS;
 176:PSC_CMD_API.c **** }
 177:PSC_CMD_API.c **** 
ARM GAS  C:\Users\youkan\AppData\Local\Temp\ccDQABZg.s 			page 10


 178:PSC_CMD_API.c **** 
 179:PSC_CMD_API.c **** PSC_RET psc_cmd_Set_Recv_End(PSC_ST_CMD* pstData,PSC_CHAR* pChar)
 180:PSC_CMD_API.c **** {
 181:PSC_CMD_API.c ****     PSC_RET ret;
 182:PSC_CMD_API.c ****     ret = psc_cmd_Set_Recv_Data(pstData,pChar);
 183:PSC_CMD_API.c ****     if( ret != PSC_RET_SUCCESS )
 184:PSC_CMD_API.c ****     {
 185:PSC_CMD_API.c ****         return ret;
 186:PSC_CMD_API.c ****     }
 187:PSC_CMD_API.c ****     
 188:PSC_CMD_API.c ****     return  PSC_RET_SUCCESS;
 189:PSC_CMD_API.c **** }
 190:PSC_CMD_API.c **** 
 191:PSC_CMD_API.c **** PSC_RET psc_cmd_Set_Recv_Data(PSC_ST_CMD* pstData,PSC_CHAR* pChar)
 192:PSC_CMD_API.c **** {
 335              		.loc 1 192 0
 336              		.cfi_startproc
 337              		@ args = 0, pretend = 0, frame = 0
 338              		@ frame_needed = 0, uses_anonymous_args = 0
 339              		@ link register save eliminated.
 340              	.LVL22:
 193:PSC_CMD_API.c ****     if( *pChar != 0x00 )
 341              		.loc 1 193 0
 342 0000 0B78     		ldrb	r3, [r1]	@ zero_extendqisi2
 343 0002 2BB1     		cbz	r3, .L29
 194:PSC_CMD_API.c ****     {
 195:PSC_CMD_API.c ****         pstData->Data.recv_data[pstData->Data.RecvDataSize++] = *pChar;
 344              		.loc 1 195 0
 345 0004 0379     		ldrb	r3, [r0, #4]	@ zero_extendqisi2
 346 0006 5A1C     		adds	r2, r3, #1
 347 0008 0271     		strb	r2, [r0, #4]
 348 000a 0A78     		ldrb	r2, [r1]	@ zero_extendqisi2
 349 000c 0344     		add	r3, r3, r0
 350 000e 1A73     		strb	r2, [r3, #12]
 351              	.L29:
 196:PSC_CMD_API.c ****     }
 197:PSC_CMD_API.c ****     
 198:PSC_CMD_API.c ****     return PSC_RET_SUCCESS;
 199:PSC_CMD_API.c **** }...
 352              		.loc 1 199 0
 353 0010 0020     		movs	r0, #0
 354              	.LVL23:
 355 0012 7047     		bx	lr
 356              		.cfi_endproc
 357              	.LFE12:
 358              		.size	psc_cmd_Set_Recv_Data, .-psc_cmd_Set_Recv_Data
 359              		.section	.text.psc_cmd_Set_Recv_Header,"ax",%progbits
 360              		.align	2
 361              		.global	psc_cmd_Set_Recv_Header
 362              		.thumb
 363              		.thumb_func
 364              		.type	psc_cmd_Set_Recv_Header, %function
 365              	psc_cmd_Set_Recv_Header:
 366              	.LFB9:
 155:PSC_CMD_API.c **** {
 367              		.loc 1 155 0
 368              		.cfi_startproc
ARM GAS  C:\Users\youkan\AppData\Local\Temp\ccDQABZg.s 			page 11


 369              		@ args = 0, pretend = 0, frame = 0
 370              		@ frame_needed = 0, uses_anonymous_args = 0
 371              	.LVL24:
 372 0000 08B5     		push	{r3, lr}
 373              		.cfi_def_cfa_offset 8
 374              		.cfi_offset 3, -8
 375              		.cfi_offset 14, -4
 157:PSC_CMD_API.c ****     ret = psc_cmd_Set_Recv_Data(pstData,pChar);
 376              		.loc 1 157 0
 377 0002 FFF7FEFF 		bl	psc_cmd_Set_Recv_Data
 378              	.LVL25:
 158:PSC_CMD_API.c ****     if( ret != PSC_RET_SUCCESS )
 379              		.loc 1 158 0
 380 0006 0028     		cmp	r0, #0
 381 0008 FFD0     		beq	.L31
 382              	.L31:
 164:PSC_CMD_API.c **** }
 383              		.loc 1 164 0
 384 000a 08BD     		pop	{r3, pc}
 385              		.cfi_endproc
 386              	.LFE9:
 387              		.size	psc_cmd_Set_Recv_Header, .-psc_cmd_Set_Recv_Header
 388              		.section	.text.psc_cmd_Set_Recv_Body,"ax",%progbits
 389              		.align	2
 390              		.global	psc_cmd_Set_Recv_Body
 391              		.thumb
 392              		.thumb_func
 393              		.type	psc_cmd_Set_Recv_Body, %function
 394              	psc_cmd_Set_Recv_Body:
 395              	.LFB10:
 167:PSC_CMD_API.c **** {
 396              		.loc 1 167 0
 397              		.cfi_startproc
 398              		@ args = 0, pretend = 0, frame = 0
 399              		@ frame_needed = 0, uses_anonymous_args = 0
 400              	.LVL26:
 401 0000 08B5     		push	{r3, lr}
 402              		.cfi_def_cfa_offset 8
 403              		.cfi_offset 3, -8
 404              		.cfi_offset 14, -4
 169:PSC_CMD_API.c ****     ret = psc_cmd_Set_Recv_Data(pstData,pChar);
 405              		.loc 1 169 0
 406 0002 FFF7FEFF 		bl	psc_cmd_Set_Recv_Data
 407              	.LVL27:
 170:PSC_CMD_API.c ****     if( ret != PSC_RET_SUCCESS )
 408              		.loc 1 170 0
 409 0006 0028     		cmp	r0, #0
 410 0008 FFD0     		beq	.L35
 411              	.L35:
 176:PSC_CMD_API.c **** }
 412              		.loc 1 176 0
 413 000a 08BD     		pop	{r3, pc}
 414              		.cfi_endproc
 415              	.LFE10:
 416              		.size	psc_cmd_Set_Recv_Body, .-psc_cmd_Set_Recv_Body
 417              		.section	.text.psc_cmd_Set_Recv_End,"ax",%progbits
 418              		.align	2
ARM GAS  C:\Users\youkan\AppData\Local\Temp\ccDQABZg.s 			page 12


 419              		.global	psc_cmd_Set_Recv_End
 420              		.thumb
 421              		.thumb_func
 422              		.type	psc_cmd_Set_Recv_End, %function
 423              	psc_cmd_Set_Recv_End:
 424              	.LFB11:
 180:PSC_CMD_API.c **** {
 425              		.loc 1 180 0
 426              		.cfi_startproc
 427              		@ args = 0, pretend = 0, frame = 0
 428              		@ frame_needed = 0, uses_anonymous_args = 0
 429              	.LVL28:
 430 0000 08B5     		push	{r3, lr}
 431              		.cfi_def_cfa_offset 8
 432              		.cfi_offset 3, -8
 433              		.cfi_offset 14, -4
 182:PSC_CMD_API.c ****     ret = psc_cmd_Set_Recv_Data(pstData,pChar);
 434              		.loc 1 182 0
 435 0002 FFF7FEFF 		bl	psc_cmd_Set_Recv_Data
 436              	.LVL29:
 183:PSC_CMD_API.c ****     if( ret != PSC_RET_SUCCESS )
 437              		.loc 1 183 0
 438 0006 0028     		cmp	r0, #0
 439 0008 FFD0     		beq	.L39
 440              	.L39:
 189:PSC_CMD_API.c **** }
 441              		.loc 1 189 0
 442 000a 08BD     		pop	{r3, pc}
 443              		.cfi_endproc
 444              	.LFE11:
 445              		.size	psc_cmd_Set_Recv_End, .-psc_cmd_Set_Recv_End
 446              		.comm	svPSC_CMD_RCV_STATE,1,1
 447              		.section	.rodata
 448              		.align	2
 449              		.set	.LANCHOR0,. + 0
 450              		.type	ssaPSC_CMD_RCV_PROC, %object
 451              		.size	ssaPSC_CMD_RCV_PROC, 40
 452              	ssaPSC_CMD_RCV_PROC:
 453 0000 00       		.byte	0
 454 0001 00       		.byte	0
 455 0002 0000     		.space	2
 456 0004 00000000 		.word	0
 457 0008 00       		.byte	0
 458 0009 0C       		.byte	12
 459 000a 0000     		.space	2
 460 000c 00000000 		.word	psc_cmd_Set_Recv_Header
 461 0010 0C       		.byte	12
 462 0011 22       		.byte	34
 463 0012 0000     		.space	2
 464 0014 00000000 		.word	psc_cmd_Set_Recv_Body
 465 0018 22       		.byte	34
 466 0019 24       		.byte	36
 467 001a 0000     		.space	2
 468 001c 00000000 		.word	psc_cmd_Set_Recv_End
 469 0020 24       		.byte	36
 470 0021 24       		.byte	36
 471 0022 0000     		.space	2
ARM GAS  C:\Users\youkan\AppData\Local\Temp\ccDQABZg.s 			page 13


 472 0024 00000000 		.word	0
 473              		.text
 474              	.Letext0:
 475              		.file 2 "PSC_Types.h"
 476              		.file 3 "PSC_CMD_API.h"
 477              		.file 4 "<built-in>"