ARM GAS  C:\Users\youkan\AppData\Local\Temp\ccUxTBdd.s 			page 1


   1              		.syntax unified
   2              		.cpu cortex-m3
   3              		.fpu softvfp
   4              		.eabi_attribute 20, 1
   5              		.eabi_attribute 21, 1
   6              		.eabi_attribute 23, 3
   7              		.eabi_attribute 24, 1
   8              		.eabi_attribute 25, 1
   9              		.eabi_attribute 26, 1
  10              		.eabi_attribute 30, 1
  11              		.eabi_attribute 34, 1
  12              		.eabi_attribute 18, 4
  13              		.thumb
  14              		.file	"Timer1.c"
  15              		.text
  16              	.Ltext0:
  17              		.cfi_sections	.debug_frame
  18              		.section	.text.Timer1_Enable,"ax",%progbits
  19              		.align	2
  20              		.global	Timer1_Enable
  21              		.thumb
  22              		.thumb_func
  23              		.type	Timer1_Enable, %function
  24              	Timer1_Enable:
  25              	.LFB2:
  26              		.file 1 "Generated_Source\\PSoC5\\Timer1.c"
   1:Generated_Source\PSoC5/Timer1.c **** /*******************************************************************************
   2:Generated_Source\PSoC5/Timer1.c **** * File Name: Timer1.c
   3:Generated_Source\PSoC5/Timer1.c **** * Version 3.20
   4:Generated_Source\PSoC5/Timer1.c **** *
   5:Generated_Source\PSoC5/Timer1.c **** * Description:
   6:Generated_Source\PSoC5/Timer1.c **** *  This file provides the source code to API for the Sleep Timer.
   7:Generated_Source\PSoC5/Timer1.c **** *
   8:Generated_Source\PSoC5/Timer1.c **** ********************************************************************************
   9:Generated_Source\PSoC5/Timer1.c **** * Copyright 2008-2012, Cypress Semiconductor Corporation.  All rights reserved.
  10:Generated_Source\PSoC5/Timer1.c **** * You may use this file only in accordance with the license, terms, conditions,
  11:Generated_Source\PSoC5/Timer1.c **** * disclaimers, and limitations in the end user license agreement accompanying
  12:Generated_Source\PSoC5/Timer1.c **** * the software package with which this file was provided.
  13:Generated_Source\PSoC5/Timer1.c **** *******************************************************************************/
  14:Generated_Source\PSoC5/Timer1.c **** 
  15:Generated_Source\PSoC5/Timer1.c **** #include "Timer1.h"
  16:Generated_Source\PSoC5/Timer1.c **** #include "CyLib.h"
  17:Generated_Source\PSoC5/Timer1.c **** 
  18:Generated_Source\PSoC5/Timer1.c **** /* Variables were not initialized */
  19:Generated_Source\PSoC5/Timer1.c **** uint8 Timer1_initVar = 0u;
  20:Generated_Source\PSoC5/Timer1.c **** 
  21:Generated_Source\PSoC5/Timer1.c **** 
  22:Generated_Source\PSoC5/Timer1.c **** /*******************************************************************************
  23:Generated_Source\PSoC5/Timer1.c **** * Function Name: Timer1_Start
  24:Generated_Source\PSoC5/Timer1.c **** ********************************************************************************
  25:Generated_Source\PSoC5/Timer1.c **** *
  26:Generated_Source\PSoC5/Timer1.c **** * Summary:
  27:Generated_Source\PSoC5/Timer1.c **** *  This is the preferred method to begin component operation. SleepTimer_Start()
  28:Generated_Source\PSoC5/Timer1.c **** *  sets the initVar variable, calls the SleepTimer_Init() function, and then
  29:Generated_Source\PSoC5/Timer1.c **** *  calls the SleepTimer_Enable() function. It enables the 1-kHz ILO clock and
  30:Generated_Source\PSoC5/Timer1.c **** *  leaves it enabled after the Sleep Timer component is stopped.
  31:Generated_Source\PSoC5/Timer1.c **** *
ARM GAS  C:\Users\youkan\AppData\Local\Temp\ccUxTBdd.s 			page 2


  32:Generated_Source\PSoC5/Timer1.c **** * Parameters:
  33:Generated_Source\PSoC5/Timer1.c **** *  None
  34:Generated_Source\PSoC5/Timer1.c **** *
  35:Generated_Source\PSoC5/Timer1.c **** * Return:
  36:Generated_Source\PSoC5/Timer1.c **** *  None
  37:Generated_Source\PSoC5/Timer1.c **** *
  38:Generated_Source\PSoC5/Timer1.c **** * Global variables:
  39:Generated_Source\PSoC5/Timer1.c **** *  The Timer1_initVar variable is used to indicate initial
  40:Generated_Source\PSoC5/Timer1.c **** *  configuration of this component.  The variable is initialized to zero and
  41:Generated_Source\PSoC5/Timer1.c **** *  set to 1 the first time Timer1_Start() is called. This allows for
  42:Generated_Source\PSoC5/Timer1.c **** *  component initialization without re-initialization in all subsequent calls
  43:Generated_Source\PSoC5/Timer1.c **** *  to the Timer1_Start() routine.
  44:Generated_Source\PSoC5/Timer1.c **** *
  45:Generated_Source\PSoC5/Timer1.c **** * Reentrant:
  46:Generated_Source\PSoC5/Timer1.c **** *  No
  47:Generated_Source\PSoC5/Timer1.c **** *
  48:Generated_Source\PSoC5/Timer1.c **** * Side Effects:
  49:Generated_Source\PSoC5/Timer1.c **** *  If the initVar variable is already set, this function only calls the
  50:Generated_Source\PSoC5/Timer1.c **** *  SleepTimer_Enable() function.
  51:Generated_Source\PSoC5/Timer1.c **** *
  52:Generated_Source\PSoC5/Timer1.c **** *******************************************************************************/
  53:Generated_Source\PSoC5/Timer1.c **** void Timer1_Start(void) 
  54:Generated_Source\PSoC5/Timer1.c **** {
  55:Generated_Source\PSoC5/Timer1.c ****     /* Execute once in normal flow */
  56:Generated_Source\PSoC5/Timer1.c ****     if (0u == Timer1_initVar)
  57:Generated_Source\PSoC5/Timer1.c ****     {
  58:Generated_Source\PSoC5/Timer1.c ****         Timer1_Init();
  59:Generated_Source\PSoC5/Timer1.c ****         Timer1_initVar = 1u;
  60:Generated_Source\PSoC5/Timer1.c ****     }
  61:Generated_Source\PSoC5/Timer1.c **** 
  62:Generated_Source\PSoC5/Timer1.c ****     /* Enables the component operation */
  63:Generated_Source\PSoC5/Timer1.c ****     Timer1_Enable();
  64:Generated_Source\PSoC5/Timer1.c **** }
  65:Generated_Source\PSoC5/Timer1.c **** 
  66:Generated_Source\PSoC5/Timer1.c **** 
  67:Generated_Source\PSoC5/Timer1.c **** /*******************************************************************************
  68:Generated_Source\PSoC5/Timer1.c **** * Function Name: Timer1_Init
  69:Generated_Source\PSoC5/Timer1.c **** ********************************************************************************
  70:Generated_Source\PSoC5/Timer1.c **** *
  71:Generated_Source\PSoC5/Timer1.c **** * Summary:
  72:Generated_Source\PSoC5/Timer1.c **** *  This function initializes or restores the component according to the
  73:Generated_Source\PSoC5/Timer1.c **** *  customizer Configure dialog settings. It is not necessary to call
  74:Generated_Source\PSoC5/Timer1.c **** *  SleepTimer_Init() because the SleepTimer_Start() API calls this function and
  75:Generated_Source\PSoC5/Timer1.c **** *  is the preferred method to begin component operation. Sets CTW interval
  76:Generated_Source\PSoC5/Timer1.c **** *  period and enables or disables CTW interrupt (according to the customizer's
  77:Generated_Source\PSoC5/Timer1.c **** *  settings).
  78:Generated_Source\PSoC5/Timer1.c **** *
  79:Generated_Source\PSoC5/Timer1.c **** * Parameters:
  80:Generated_Source\PSoC5/Timer1.c **** *  None
  81:Generated_Source\PSoC5/Timer1.c **** *
  82:Generated_Source\PSoC5/Timer1.c **** * Return:
  83:Generated_Source\PSoC5/Timer1.c **** *  None
  84:Generated_Source\PSoC5/Timer1.c **** *
  85:Generated_Source\PSoC5/Timer1.c **** *******************************************************************************/
  86:Generated_Source\PSoC5/Timer1.c **** void Timer1_Init(void)  
  87:Generated_Source\PSoC5/Timer1.c **** {
  88:Generated_Source\PSoC5/Timer1.c ****     /* Sets default (passed from customizer) interval */
ARM GAS  C:\Users\youkan\AppData\Local\Temp\ccUxTBdd.s 			page 3


  89:Generated_Source\PSoC5/Timer1.c ****     Timer1_SetInterval(Timer1_INTERVAL);
  90:Generated_Source\PSoC5/Timer1.c **** 
  91:Generated_Source\PSoC5/Timer1.c ****     /* Check if user sets to issue an interrupt in customizer */
  92:Generated_Source\PSoC5/Timer1.c ****     #if (1u == Timer1_ENABLE_INTERRUPT)
  93:Generated_Source\PSoC5/Timer1.c ****     {
  94:Generated_Source\PSoC5/Timer1.c ****         /* Enable interrupt */
  95:Generated_Source\PSoC5/Timer1.c ****         Timer1_EnableInt();
  96:Generated_Source\PSoC5/Timer1.c ****     }
  97:Generated_Source\PSoC5/Timer1.c ****     #else /* interrupt should be disabled */
  98:Generated_Source\PSoC5/Timer1.c ****     {
  99:Generated_Source\PSoC5/Timer1.c ****         /* Disable interrupt */
 100:Generated_Source\PSoC5/Timer1.c ****         Timer1_DisableInt();
 101:Generated_Source\PSoC5/Timer1.c ****     }   /* Interrupt is disabled  */
 102:Generated_Source\PSoC5/Timer1.c ****     #endif  /* (1u == Timer1_ENABLE_INTERRUPT) */
 103:Generated_Source\PSoC5/Timer1.c **** }
 104:Generated_Source\PSoC5/Timer1.c **** 
 105:Generated_Source\PSoC5/Timer1.c **** 
 106:Generated_Source\PSoC5/Timer1.c **** /*******************************************************************************
 107:Generated_Source\PSoC5/Timer1.c **** * Function Name: Timer1_Enable
 108:Generated_Source\PSoC5/Timer1.c **** ********************************************************************************
 109:Generated_Source\PSoC5/Timer1.c **** * Summary:
 110:Generated_Source\PSoC5/Timer1.c **** *  This function activates the 1-kHz ILO and the CTW and begins component
 111:Generated_Source\PSoC5/Timer1.c **** *  operation. It is not necessary to call SleepTimer_Enable() because the
 112:Generated_Source\PSoC5/Timer1.c **** *  SleepTimer_Start() API calls this function, which is the preferred method to
 113:Generated_Source\PSoC5/Timer1.c **** *  begin component operation.
 114:Generated_Source\PSoC5/Timer1.c **** *
 115:Generated_Source\PSoC5/Timer1.c **** * Parameters:
 116:Generated_Source\PSoC5/Timer1.c **** *  None
 117:Generated_Source\PSoC5/Timer1.c **** *
 118:Generated_Source\PSoC5/Timer1.c **** * Return:
 119:Generated_Source\PSoC5/Timer1.c **** *  None
 120:Generated_Source\PSoC5/Timer1.c **** *
 121:Generated_Source\PSoC5/Timer1.c **** * Side Effects:
 122:Generated_Source\PSoC5/Timer1.c **** *  Enables 1 kHz ILO clocks and leaves it enabled after Sleep Time component
 123:Generated_Source\PSoC5/Timer1.c **** *  is stopped.
 124:Generated_Source\PSoC5/Timer1.c **** *
 125:Generated_Source\PSoC5/Timer1.c **** *******************************************************************************/
 126:Generated_Source\PSoC5/Timer1.c **** void Timer1_Enable(void) 
 127:Generated_Source\PSoC5/Timer1.c **** {
  27              		.loc 1 127 0
  28              		.cfi_startproc
  29              		@ args = 0, pretend = 0, frame = 0
  30              		@ frame_needed = 0, uses_anonymous_args = 0
  31 0000 08B5     		push	{r3, lr}
  32              		.cfi_def_cfa_offset 8
  33              		.cfi_offset 3, -8
  34              		.cfi_offset 14, -4
 128:Generated_Source\PSoC5/Timer1.c ****     uint8 interruptState;
 129:Generated_Source\PSoC5/Timer1.c **** 
 130:Generated_Source\PSoC5/Timer1.c ****     /* If 1kHz ILO is disabled */
 131:Generated_Source\PSoC5/Timer1.c ****     if(0u == (Timer1_ILO_CFG_REG & Timer1_ILO_1KHZ_EN))
  35              		.loc 1 131 0
  36 0002 0F4B     		ldr	r3, .L5
  37 0004 1B78     		ldrb	r3, [r3]	@ zero_extendqisi2
  38 0006 13F0020F 		tst	r3, #2
  39 000a 0ED1     		bne	.L2
 132:Generated_Source\PSoC5/Timer1.c ****     {
ARM GAS  C:\Users\youkan\AppData\Local\Temp\ccUxTBdd.s 			page 4


 133:Generated_Source\PSoC5/Timer1.c ****         /* Enter critical section */
 134:Generated_Source\PSoC5/Timer1.c ****         interruptState = CyEnterCriticalSection();
  40              		.loc 1 134 0
  41 000c FFF7FEFF 		bl	CyEnterCriticalSection
  42              	.LVL0:
 135:Generated_Source\PSoC5/Timer1.c **** 
 136:Generated_Source\PSoC5/Timer1.c ****         /* Enable 1kHz ILO */
 137:Generated_Source\PSoC5/Timer1.c ****         Timer1_ILO_CFG_REG |=Timer1_ILO_1KHZ_EN;
  43              		.loc 1 137 0
  44 0010 0B4A     		ldr	r2, .L5
  45 0012 1378     		ldrb	r3, [r2]	@ zero_extendqisi2
  46 0014 43F00203 		orr	r3, r3, #2
  47 0018 1370     		strb	r3, [r2]
 138:Generated_Source\PSoC5/Timer1.c **** 
 139:Generated_Source\PSoC5/Timer1.c ****         /* Enable the CTW counter */
 140:Generated_Source\PSoC5/Timer1.c ****         Timer1_TW_CFG_REG |= Timer1_CTW_EN;
  48              		.loc 1 140 0
  49 001a 8232     		adds	r2, r2, #130
  50 001c 1378     		ldrb	r3, [r2]	@ zero_extendqisi2
  51 001e 43F00403 		orr	r3, r3, #4
  52 0022 1370     		strb	r3, [r2]
 141:Generated_Source\PSoC5/Timer1.c **** 
 142:Generated_Source\PSoC5/Timer1.c ****         /* Exit critical section */
 143:Generated_Source\PSoC5/Timer1.c ****         CyExitCriticalSection(interruptState);
  53              		.loc 1 143 0
  54 0024 FFF7FEFF 		bl	CyExitCriticalSection
  55              	.LVL1:
  56 0028 08BD     		pop	{r3, pc}
  57              	.L2:
 144:Generated_Source\PSoC5/Timer1.c ****     }
 145:Generated_Source\PSoC5/Timer1.c ****     else /* If 1kHz ILO is enabled - enable CTW counter */
 146:Generated_Source\PSoC5/Timer1.c ****     {
 147:Generated_Source\PSoC5/Timer1.c ****         /* Enter critical section */
 148:Generated_Source\PSoC5/Timer1.c ****         interruptState = CyEnterCriticalSection();
  58              		.loc 1 148 0
  59 002a FFF7FEFF 		bl	CyEnterCriticalSection
  60              	.LVL2:
 149:Generated_Source\PSoC5/Timer1.c **** 
 150:Generated_Source\PSoC5/Timer1.c ****         /* Enable the CTW counter */
 151:Generated_Source\PSoC5/Timer1.c ****         Timer1_TW_CFG_REG |= Timer1_CTW_EN;
  61              		.loc 1 151 0
  62 002e 054A     		ldr	r2, .L5+4
  63 0030 1378     		ldrb	r3, [r2]	@ zero_extendqisi2
  64 0032 43F00403 		orr	r3, r3, #4
  65 0036 1370     		strb	r3, [r2]
 152:Generated_Source\PSoC5/Timer1.c **** 
 153:Generated_Source\PSoC5/Timer1.c ****         /* Exit critical section */
 154:Generated_Source\PSoC5/Timer1.c ****         CyExitCriticalSection(interruptState);
  66              		.loc 1 154 0
  67 0038 FFF7FEFF 		bl	CyExitCriticalSection
  68              	.LVL3:
  69 003c 08BD     		pop	{r3, pc}
  70              	.L6:
  71 003e 00BF     		.align	2
  72              	.L5:
  73 0040 00430040 		.word	1073758976
  74 0044 82430040 		.word	1073759106
ARM GAS  C:\Users\youkan\AppData\Local\Temp\ccUxTBdd.s 			page 5


  75              		.cfi_endproc
  76              	.LFE2:
  77              		.size	Timer1_Enable, .-Timer1_Enable
  78              		.section	.text.Timer1_Stop,"ax",%progbits
  79              		.align	2
  80              		.global	Timer1_Stop
  81              		.thumb
  82              		.thumb_func
  83              		.type	Timer1_Stop, %function
  84              	Timer1_Stop:
  85              	.LFB3:
 155:Generated_Source\PSoC5/Timer1.c ****     }
 156:Generated_Source\PSoC5/Timer1.c **** }
 157:Generated_Source\PSoC5/Timer1.c **** 
 158:Generated_Source\PSoC5/Timer1.c **** 
 159:Generated_Source\PSoC5/Timer1.c **** /*******************************************************************************
 160:Generated_Source\PSoC5/Timer1.c **** * Function Name: Timer1_Stop
 161:Generated_Source\PSoC5/Timer1.c **** ********************************************************************************
 162:Generated_Source\PSoC5/Timer1.c **** *
 163:Generated_Source\PSoC5/Timer1.c **** * Summary:
 164:Generated_Source\PSoC5/Timer1.c **** *  This function stops Sleep Timer operation and disables wakeup and interrupt.
 165:Generated_Source\PSoC5/Timer1.c **** *  The device does not wake up when the CTW counter reaches terminal count, and
 166:Generated_Source\PSoC5/Timer1.c **** *  an interrupt is not issued.
 167:Generated_Source\PSoC5/Timer1.c **** *
 168:Generated_Source\PSoC5/Timer1.c **** * Parameters:
 169:Generated_Source\PSoC5/Timer1.c **** *  None
 170:Generated_Source\PSoC5/Timer1.c **** *
 171:Generated_Source\PSoC5/Timer1.c **** * Return:
 172:Generated_Source\PSoC5/Timer1.c **** *  None
 173:Generated_Source\PSoC5/Timer1.c **** *
 174:Generated_Source\PSoC5/Timer1.c **** * Side Effects:
 175:Generated_Source\PSoC5/Timer1.c **** *  Leaves the 1 kHz ILO clock enabled after Sleep Time component is stopped.
 176:Generated_Source\PSoC5/Timer1.c **** *
 177:Generated_Source\PSoC5/Timer1.c **** *******************************************************************************/
 178:Generated_Source\PSoC5/Timer1.c **** void Timer1_Stop(void) 
 179:Generated_Source\PSoC5/Timer1.c **** {
  86              		.loc 1 179 0
  87              		.cfi_startproc
  88              		@ args = 0, pretend = 0, frame = 0
  89              		@ frame_needed = 0, uses_anonymous_args = 0
  90 0000 08B5     		push	{r3, lr}
  91              		.cfi_def_cfa_offset 8
  92              		.cfi_offset 3, -8
  93              		.cfi_offset 14, -4
 180:Generated_Source\PSoC5/Timer1.c ****     uint8 interruptState;
 181:Generated_Source\PSoC5/Timer1.c **** 
 182:Generated_Source\PSoC5/Timer1.c ****     /* Enter critical section */
 183:Generated_Source\PSoC5/Timer1.c ****     interruptState = CyEnterCriticalSection();
  94              		.loc 1 183 0
  95 0002 FFF7FEFF 		bl	CyEnterCriticalSection
  96              	.LVL4:
 184:Generated_Source\PSoC5/Timer1.c **** 
 185:Generated_Source\PSoC5/Timer1.c ****     /* Disable CTW counter */
 186:Generated_Source\PSoC5/Timer1.c ****     Timer1_TW_CFG_REG &= (uint8)(~Timer1_CTW_EN);
  97              		.loc 1 186 0
  98 0006 044A     		ldr	r2, .L9
  99 0008 1378     		ldrb	r3, [r2]	@ zero_extendqisi2
ARM GAS  C:\Users\youkan\AppData\Local\Temp\ccUxTBdd.s 			page 6


 100 000a 03F0FB03 		and	r3, r3, #251
 101 000e 1370     		strb	r3, [r2]
 187:Generated_Source\PSoC5/Timer1.c **** 
 188:Generated_Source\PSoC5/Timer1.c ****     /* Exit critical section */
 189:Generated_Source\PSoC5/Timer1.c ****     CyExitCriticalSection(interruptState);
 102              		.loc 1 189 0
 103 0010 FFF7FEFF 		bl	CyExitCriticalSection
 104              	.LVL5:
 105 0014 08BD     		pop	{r3, pc}
 106              	.L10:
 107 0016 00BF     		.align	2
 108              	.L9:
 109 0018 82430040 		.word	1073759106
 110              		.cfi_endproc
 111              	.LFE3:
 112              		.size	Timer1_Stop, .-Timer1_Stop
 113              		.section	.text.Timer1_EnableInt,"ax",%progbits
 114              		.align	2
 115              		.global	Timer1_EnableInt
 116              		.thumb
 117              		.thumb_func
 118              		.type	Timer1_EnableInt, %function
 119              	Timer1_EnableInt:
 120              	.LFB4:
 190:Generated_Source\PSoC5/Timer1.c **** }
 191:Generated_Source\PSoC5/Timer1.c **** 
 192:Generated_Source\PSoC5/Timer1.c **** 
 193:Generated_Source\PSoC5/Timer1.c **** /*******************************************************************************
 194:Generated_Source\PSoC5/Timer1.c **** * Function Name: Timer1_EnableInt
 195:Generated_Source\PSoC5/Timer1.c **** ********************************************************************************
 196:Generated_Source\PSoC5/Timer1.c **** *
 197:Generated_Source\PSoC5/Timer1.c **** * Summary:
 198:Generated_Source\PSoC5/Timer1.c **** *  This function enables the CTW terminal count interrupt.
 199:Generated_Source\PSoC5/Timer1.c **** *
 200:Generated_Source\PSoC5/Timer1.c **** * Parameters:
 201:Generated_Source\PSoC5/Timer1.c **** *  None
 202:Generated_Source\PSoC5/Timer1.c **** *
 203:Generated_Source\PSoC5/Timer1.c **** * Return:
 204:Generated_Source\PSoC5/Timer1.c **** *  None
 205:Generated_Source\PSoC5/Timer1.c **** *
 206:Generated_Source\PSoC5/Timer1.c **** *******************************************************************************/
 207:Generated_Source\PSoC5/Timer1.c **** void Timer1_EnableInt(void) 
 208:Generated_Source\PSoC5/Timer1.c **** {
 121              		.loc 1 208 0
 122              		.cfi_startproc
 123              		@ args = 0, pretend = 0, frame = 0
 124              		@ frame_needed = 0, uses_anonymous_args = 0
 125 0000 08B5     		push	{r3, lr}
 126              		.cfi_def_cfa_offset 8
 127              		.cfi_offset 3, -8
 128              		.cfi_offset 14, -4
 209:Generated_Source\PSoC5/Timer1.c ****     uint8 interruptState;
 210:Generated_Source\PSoC5/Timer1.c **** 
 211:Generated_Source\PSoC5/Timer1.c ****     /* Enter critical section */
 212:Generated_Source\PSoC5/Timer1.c ****     interruptState = CyEnterCriticalSection();
 129              		.loc 1 212 0
 130 0002 FFF7FEFF 		bl	CyEnterCriticalSection
ARM GAS  C:\Users\youkan\AppData\Local\Temp\ccUxTBdd.s 			page 7


 131              	.LVL6:
 213:Generated_Source\PSoC5/Timer1.c **** 
 214:Generated_Source\PSoC5/Timer1.c ****      /* Enable interrupt on wake up */
 215:Generated_Source\PSoC5/Timer1.c ****     Timer1_TW_CFG_REG |= Timer1_CTW_IE;
 132              		.loc 1 215 0
 133 0006 044A     		ldr	r2, .L13
 134 0008 1378     		ldrb	r3, [r2]	@ zero_extendqisi2
 135 000a 43F00803 		orr	r3, r3, #8
 136 000e 1370     		strb	r3, [r2]
 216:Generated_Source\PSoC5/Timer1.c **** 
 217:Generated_Source\PSoC5/Timer1.c ****     /* Exit critical section */
 218:Generated_Source\PSoC5/Timer1.c ****     CyExitCriticalSection(interruptState);
 137              		.loc 1 218 0
 138 0010 FFF7FEFF 		bl	CyExitCriticalSection
 139              	.LVL7:
 140 0014 08BD     		pop	{r3, pc}
 141              	.L14:
 142 0016 00BF     		.align	2
 143              	.L13:
 144 0018 82430040 		.word	1073759106
 145              		.cfi_endproc
 146              	.LFE4:
 147              		.size	Timer1_EnableInt, .-Timer1_EnableInt
 148              		.section	.text.Timer1_DisableInt,"ax",%progbits
 149              		.align	2
 150              		.global	Timer1_DisableInt
 151              		.thumb
 152              		.thumb_func
 153              		.type	Timer1_DisableInt, %function
 154              	Timer1_DisableInt:
 155              	.LFB5:
 219:Generated_Source\PSoC5/Timer1.c **** }
 220:Generated_Source\PSoC5/Timer1.c **** 
 221:Generated_Source\PSoC5/Timer1.c **** 
 222:Generated_Source\PSoC5/Timer1.c **** /*******************************************************************************
 223:Generated_Source\PSoC5/Timer1.c **** * Function Name: Timer1_DisableInt
 224:Generated_Source\PSoC5/Timer1.c **** ********************************************************************************
 225:Generated_Source\PSoC5/Timer1.c **** *
 226:Generated_Source\PSoC5/Timer1.c **** * Summary:
 227:Generated_Source\PSoC5/Timer1.c **** *  This function disables the CTW terminal count interrupt.
 228:Generated_Source\PSoC5/Timer1.c **** *
 229:Generated_Source\PSoC5/Timer1.c **** * Parameters:
 230:Generated_Source\PSoC5/Timer1.c **** *  None
 231:Generated_Source\PSoC5/Timer1.c **** *
 232:Generated_Source\PSoC5/Timer1.c **** * Return:
 233:Generated_Source\PSoC5/Timer1.c **** *  None
 234:Generated_Source\PSoC5/Timer1.c **** *
 235:Generated_Source\PSoC5/Timer1.c **** *******************************************************************************/
 236:Generated_Source\PSoC5/Timer1.c **** void Timer1_DisableInt(void) 
 237:Generated_Source\PSoC5/Timer1.c **** {
 156              		.loc 1 237 0
 157              		.cfi_startproc
 158              		@ args = 0, pretend = 0, frame = 0
 159              		@ frame_needed = 0, uses_anonymous_args = 0
 160 0000 08B5     		push	{r3, lr}
 161              		.cfi_def_cfa_offset 8
 162              		.cfi_offset 3, -8
ARM GAS  C:\Users\youkan\AppData\Local\Temp\ccUxTBdd.s 			page 8


 163              		.cfi_offset 14, -4
 238:Generated_Source\PSoC5/Timer1.c ****     uint8 interruptState;
 239:Generated_Source\PSoC5/Timer1.c **** 
 240:Generated_Source\PSoC5/Timer1.c ****     /* Enter critical section */
 241:Generated_Source\PSoC5/Timer1.c ****     interruptState = CyEnterCriticalSection();
 164              		.loc 1 241 0
 165 0002 FFF7FEFF 		bl	CyEnterCriticalSection
 166              	.LVL8:
 242:Generated_Source\PSoC5/Timer1.c **** 
 243:Generated_Source\PSoC5/Timer1.c ****     /* Disable interrupt on wake up */
 244:Generated_Source\PSoC5/Timer1.c ****     Timer1_TW_CFG_REG &= (uint8)(~Timer1_CTW_IE);
 167              		.loc 1 244 0
 168 0006 044A     		ldr	r2, .L17
 169 0008 1378     		ldrb	r3, [r2]	@ zero_extendqisi2
 170 000a 03F0F703 		and	r3, r3, #247
 171 000e 1370     		strb	r3, [r2]
 245:Generated_Source\PSoC5/Timer1.c **** 
 246:Generated_Source\PSoC5/Timer1.c ****     /* Exit critical section */
 247:Generated_Source\PSoC5/Timer1.c ****     CyExitCriticalSection(interruptState);
 172              		.loc 1 247 0
 173 0010 FFF7FEFF 		bl	CyExitCriticalSection
 174              	.LVL9:
 175 0014 08BD     		pop	{r3, pc}
 176              	.L18:
 177 0016 00BF     		.align	2
 178              	.L17:
 179 0018 82430040 		.word	1073759106
 180              		.cfi_endproc
 181              	.LFE5:
 182              		.size	Timer1_DisableInt, .-Timer1_DisableInt
 183              		.section	.text.Timer1_SetInterval,"ax",%progbits
 184              		.align	2
 185              		.global	Timer1_SetInterval
 186              		.thumb
 187              		.thumb_func
 188              		.type	Timer1_SetInterval, %function
 189              	Timer1_SetInterval:
 190              	.LFB6:
 248:Generated_Source\PSoC5/Timer1.c **** }
 249:Generated_Source\PSoC5/Timer1.c **** 
 250:Generated_Source\PSoC5/Timer1.c **** 
 251:Generated_Source\PSoC5/Timer1.c **** /*******************************************************************************
 252:Generated_Source\PSoC5/Timer1.c **** * Function Name: Timer1_SetInterval
 253:Generated_Source\PSoC5/Timer1.c **** ********************************************************************************
 254:Generated_Source\PSoC5/Timer1.c **** *
 255:Generated_Source\PSoC5/Timer1.c **** * Summary:
 256:Generated_Source\PSoC5/Timer1.c **** *  This function sets the CTW interval period. The first interval can range
 257:Generated_Source\PSoC5/Timer1.c **** *  from 1 to (period + 1) milliseconds. Additional intervals occur at the
 258:Generated_Source\PSoC5/Timer1.c **** *  nominal period. You can only change the interval value when CTW is disabled,
 259:Generated_Source\PSoC5/Timer1.c **** *  which you do by stopping the component.
 260:Generated_Source\PSoC5/Timer1.c **** *
 261:Generated_Source\PSoC5/Timer1.c **** * Parameters:
 262:Generated_Source\PSoC5/Timer1.c **** *  uint8 interval: interval?s value for the CTW.
 263:Generated_Source\PSoC5/Timer1.c **** *
 264:Generated_Source\PSoC5/Timer1.c **** *  PSoC 5:
 265:Generated_Source\PSoC5/Timer1.c **** *  Only the 4-, 8-, 16-, 32-, 64-, 128-, and 256-ms selections are supported.
 266:Generated_Source\PSoC5/Timer1.c **** *
ARM GAS  C:\Users\youkan\AppData\Local\Temp\ccUxTBdd.s 			page 9


 267:Generated_Source\PSoC5/Timer1.c **** *           Name                    Value        Period
 268:Generated_Source\PSoC5/Timer1.c **** *   Timer1__CTW_2_MS      4'b0001        2 ms
 269:Generated_Source\PSoC5/Timer1.c **** *   Timer1__CTW_4_MS      4'b0010        4 ms
 270:Generated_Source\PSoC5/Timer1.c **** *   Timer1__CTW_8_MS      4'b0011        8 ms
 271:Generated_Source\PSoC5/Timer1.c **** *   Timer1__CTW_16_MS     4'b0100        16 ms
 272:Generated_Source\PSoC5/Timer1.c **** *   Timer1__CTW_32_MS     4'b0101        32 ms
 273:Generated_Source\PSoC5/Timer1.c **** *   Timer1__CTW_64_MS     4'b0110        64 ms
 274:Generated_Source\PSoC5/Timer1.c **** *   Timer1__CTW_128_MS    4'b0111        128 ms
 275:Generated_Source\PSoC5/Timer1.c **** *   Timer1__CTW_256_MS    4'b1000        256 ms
 276:Generated_Source\PSoC5/Timer1.c **** *   Timer1__CTW_512_MS    4'b1001        512 ms
 277:Generated_Source\PSoC5/Timer1.c **** *   Timer1__CTW_1024_MS   4'b1010        1024 ms
 278:Generated_Source\PSoC5/Timer1.c **** *   Timer1__CTW_2048_MS   4'b1011        2048 ms
 279:Generated_Source\PSoC5/Timer1.c **** *   Timer1__CTW_4096_MS   4'b1100        4096 ms
 280:Generated_Source\PSoC5/Timer1.c **** *
 281:Generated_Source\PSoC5/Timer1.c **** * Return:
 282:Generated_Source\PSoC5/Timer1.c **** *  None
 283:Generated_Source\PSoC5/Timer1.c **** *
 284:Generated_Source\PSoC5/Timer1.c **** * Side Effects:
 285:Generated_Source\PSoC5/Timer1.c **** *  Interval value can be only changed when component is stopped (CTW is
 286:Generated_Source\PSoC5/Timer1.c **** *  disabled).
 287:Generated_Source\PSoC5/Timer1.c **** *
 288:Generated_Source\PSoC5/Timer1.c **** *******************************************************************************/
 289:Generated_Source\PSoC5/Timer1.c **** void Timer1_SetInterval(uint8 interval) 
 290:Generated_Source\PSoC5/Timer1.c **** {
 191              		.loc 1 290 0
 192              		.cfi_startproc
 193              		@ args = 0, pretend = 0, frame = 0
 194              		@ frame_needed = 0, uses_anonymous_args = 0
 195              		@ link register save eliminated.
 196              	.LVL10:
 291:Generated_Source\PSoC5/Timer1.c ****     /* Check if CTW is disabled */
 292:Generated_Source\PSoC5/Timer1.c ****     if (0u == (Timer1_TW_CFG_REG & Timer1_CTW_EN))
 197              		.loc 1 292 0
 198 0000 064B     		ldr	r3, .L21
 199 0002 1B78     		ldrb	r3, [r3]	@ zero_extendqisi2
 200 0004 13F0040F 		tst	r3, #4
 201 0008 07D1     		bne	.L19
 293:Generated_Source\PSoC5/Timer1.c ****     {
 294:Generated_Source\PSoC5/Timer1.c ****         #if(CY_PSOC5A)
 295:Generated_Source\PSoC5/Timer1.c **** 
 296:Generated_Source\PSoC5/Timer1.c ****             CYASSERT((Timer1__CTW_4_MS   == interval) ||
 297:Generated_Source\PSoC5/Timer1.c ****                      (Timer1__CTW_8_MS   == interval) ||
 298:Generated_Source\PSoC5/Timer1.c ****                      (Timer1__CTW_16_MS  == interval) ||
 299:Generated_Source\PSoC5/Timer1.c ****                      (Timer1__CTW_32_MS  == interval) ||
 300:Generated_Source\PSoC5/Timer1.c ****                      (Timer1__CTW_64_MS  == interval) ||
 301:Generated_Source\PSoC5/Timer1.c ****                      (Timer1__CTW_128_MS == interval) ||
 302:Generated_Source\PSoC5/Timer1.c ****                      (Timer1__CTW_256_MS == interval));
 303:Generated_Source\PSoC5/Timer1.c **** 
 304:Generated_Source\PSoC5/Timer1.c ****         #endif  /* (CY_PSOC5A) */
 305:Generated_Source\PSoC5/Timer1.c **** 
 306:Generated_Source\PSoC5/Timer1.c ****         /* Set CTW interval */
 307:Generated_Source\PSoC5/Timer1.c ****         Timer1_CTW_INTERVAL_REG = \
 308:Generated_Source\PSoC5/Timer1.c ****             (Timer1_CTW_INTERVAL_REG & ((uint8)~Timer1_INTERVAL_MASK)) | \
 202              		.loc 1 308 0
 203 000a 054A     		ldr	r2, .L21+4
 204 000c 1378     		ldrb	r3, [r2]	@ zero_extendqisi2
 307:Generated_Source\PSoC5/Timer1.c ****             (Timer1_CTW_INTERVAL_REG & ((uint8)~Timer1_INTERVAL_MASK)) | \
ARM GAS  C:\Users\youkan\AppData\Local\Temp\ccUxTBdd.s 			page 10


 205              		.loc 1 307 0
 206 000e 03F0F003 		and	r3, r3, #240
 207 0012 00F00F00 		and	r0, r0, #15
 208              	.LVL11:
 209 0016 1843     		orrs	r0, r0, r3
 210 0018 1070     		strb	r0, [r2]
 211              	.L19:
 212 001a 7047     		bx	lr
 213              	.L22:
 214              		.align	2
 215              	.L21:
 216 001c 82430040 		.word	1073759106
 217 0020 81430040 		.word	1073759105
 218              		.cfi_endproc
 219              	.LFE6:
 220              		.size	Timer1_SetInterval, .-Timer1_SetInterval
 221              		.section	.text.Timer1_Init,"ax",%progbits
 222              		.align	2
 223              		.global	Timer1_Init
 224              		.thumb
 225              		.thumb_func
 226              		.type	Timer1_Init, %function
 227              	Timer1_Init:
 228              	.LFB1:
  87:Generated_Source\PSoC5/Timer1.c ****     /* Sets default (passed from customizer) interval */
 229              		.loc 1 87 0
 230              		.cfi_startproc
 231              		@ args = 0, pretend = 0, frame = 0
 232              		@ frame_needed = 0, uses_anonymous_args = 0
 233 0000 08B5     		push	{r3, lr}
 234              		.cfi_def_cfa_offset 8
 235              		.cfi_offset 3, -8
 236              		.cfi_offset 14, -4
  89:Generated_Source\PSoC5/Timer1.c **** 
 237              		.loc 1 89 0
 238 0002 0420     		movs	r0, #4
 239 0004 FFF7FEFF 		bl	Timer1_SetInterval
 240              	.LVL12:
  95:Generated_Source\PSoC5/Timer1.c ****     }
 241              		.loc 1 95 0
 242 0008 FFF7FEFF 		bl	Timer1_EnableInt
 243              	.LVL13:
 244 000c 08BD     		pop	{r3, pc}
 245              		.cfi_endproc
 246              	.LFE1:
 247              		.size	Timer1_Init, .-Timer1_Init
 248 000e 00BF     		.section	.text.Timer1_Start,"ax",%progbits
 249              		.align	2
 250              		.global	Timer1_Start
 251              		.thumb
 252              		.thumb_func
 253              		.type	Timer1_Start, %function
 254              	Timer1_Start:
 255              	.LFB0:
  54:Generated_Source\PSoC5/Timer1.c ****     /* Execute once in normal flow */
 256              		.loc 1 54 0
 257              		.cfi_startproc
ARM GAS  C:\Users\youkan\AppData\Local\Temp\ccUxTBdd.s 			page 11


 258              		@ args = 0, pretend = 0, frame = 0
 259              		@ frame_needed = 0, uses_anonymous_args = 0
 260 0000 08B5     		push	{r3, lr}
 261              		.cfi_def_cfa_offset 8
 262              		.cfi_offset 3, -8
 263              		.cfi_offset 14, -4
  56:Generated_Source\PSoC5/Timer1.c ****     {
 264              		.loc 1 56 0
 265 0002 054B     		ldr	r3, .L28
 266 0004 1B78     		ldrb	r3, [r3]	@ zero_extendqisi2
 267 0006 23B9     		cbnz	r3, .L26
  58:Generated_Source\PSoC5/Timer1.c ****         Timer1_initVar = 1u;
 268              		.loc 1 58 0
 269 0008 FFF7FEFF 		bl	Timer1_Init
 270              	.LVL14:
  59:Generated_Source\PSoC5/Timer1.c ****     }
 271              		.loc 1 59 0
 272 000c 0122     		movs	r2, #1
 273 000e 024B     		ldr	r3, .L28
 274 0010 1A70     		strb	r2, [r3]
 275              	.L26:
  63:Generated_Source\PSoC5/Timer1.c **** }
 276              		.loc 1 63 0
 277 0012 FFF7FEFF 		bl	Timer1_Enable
 278              	.LVL15:
 279 0016 08BD     		pop	{r3, pc}
 280              	.L29:
 281              		.align	2
 282              	.L28:
 283 0018 00000000 		.word	.LANCHOR0
 284              		.cfi_endproc
 285              	.LFE0:
 286              		.size	Timer1_Start, .-Timer1_Start
 287              		.section	.text.Timer1_GetStatus,"ax",%progbits
 288              		.align	2
 289              		.global	Timer1_GetStatus
 290              		.thumb
 291              		.thumb_func
 292              		.type	Timer1_GetStatus, %function
 293              	Timer1_GetStatus:
 294              	.LFB7:
 309:Generated_Source\PSoC5/Timer1.c ****             (interval & Timer1_INTERVAL_MASK);
 310:Generated_Source\PSoC5/Timer1.c ****     }
 311:Generated_Source\PSoC5/Timer1.c ****     /* Do nothing if CTW is enabled. */
 312:Generated_Source\PSoC5/Timer1.c **** }
 313:Generated_Source\PSoC5/Timer1.c **** 
 314:Generated_Source\PSoC5/Timer1.c **** 
 315:Generated_Source\PSoC5/Timer1.c **** /*******************************************************************************
 316:Generated_Source\PSoC5/Timer1.c **** * Function Name: Timer1_GetStatus
 317:Generated_Source\PSoC5/Timer1.c **** ********************************************************************************
 318:Generated_Source\PSoC5/Timer1.c **** *
 319:Generated_Source\PSoC5/Timer1.c **** * Summary:
 320:Generated_Source\PSoC5/Timer1.c **** *  This function returns the state of the Sleep Timer's status register, and
 321:Generated_Source\PSoC5/Timer1.c **** *  clears the pending interrupt status bit. The application code must always
 322:Generated_Source\PSoC5/Timer1.c **** *  call this function after wakeup to clear the ctw_int status bit. The code
 323:Generated_Source\PSoC5/Timer1.c **** *  must call this function whether the Sleep Timer's interrupt is disabled or
 324:Generated_Source\PSoC5/Timer1.c **** *  enabled.
ARM GAS  C:\Users\youkan\AppData\Local\Temp\ccUxTBdd.s 			page 12


 325:Generated_Source\PSoC5/Timer1.c **** *
 326:Generated_Source\PSoC5/Timer1.c **** * Parameters:
 327:Generated_Source\PSoC5/Timer1.c **** *  None
 328:Generated_Source\PSoC5/Timer1.c **** *
 329:Generated_Source\PSoC5/Timer1.c **** * Return:
 330:Generated_Source\PSoC5/Timer1.c **** *  Returns an 8-bit value (uint8) with bits set if a corresponding event has
 331:Generated_Source\PSoC5/Timer1.c **** *  occurred. The constants shown in the following table describe the two-bit
 332:Generated_Source\PSoC5/Timer1.c **** *  masks for the two events that this return value can contain.
 333:Generated_Source\PSoC5/Timer1.c **** *
 334:Generated_Source\PSoC5/Timer1.c **** *            Name                             Description
 335:Generated_Source\PSoC5/Timer1.c **** *  Timer1_PM_INT_SR_ONEPPSP  A onepps event has occured
 336:Generated_Source\PSoC5/Timer1.c **** *  Timer1_PM_INT_SR_CTW      A central timewheel event occured
 337:Generated_Source\PSoC5/Timer1.c **** *  Timer1_PM_INT_SR_FTW      A fast timewheel event occured
 338:Generated_Source\PSoC5/Timer1.c **** *
 339:Generated_Source\PSoC5/Timer1.c **** * Side Effects:
 340:Generated_Source\PSoC5/Timer1.c **** *  If the SleepTimer_GetStatus() function is not called in an interrupt
 341:Generated_Source\PSoC5/Timer1.c **** *  associated with the SleepTimer, the interrupt is not cleared and as soon as
 342:Generated_Source\PSoC5/Timer1.c **** *  the interrupt is exited it is re-entered.
 343:Generated_Source\PSoC5/Timer1.c **** *
 344:Generated_Source\PSoC5/Timer1.c **** *  After the Sleep Timer has expired, the sleep interval is functionally 0 ms,
 345:Generated_Source\PSoC5/Timer1.c **** *  because the interrupt is called until the ctw_int flag is cleared by the
 346:Generated_Source\PSoC5/Timer1.c **** *  SleepTimer_GetStatus() function.
 347:Generated_Source\PSoC5/Timer1.c **** *
 348:Generated_Source\PSoC5/Timer1.c **** *  If an interrupt is generated at the same time as a register read/clear, the
 349:Generated_Source\PSoC5/Timer1.c **** *  bit remains set (which causes another interrupt).
 350:Generated_Source\PSoC5/Timer1.c **** *
 351:Generated_Source\PSoC5/Timer1.c **** *  Reports and then clears all interrupt status bits in the Power Manager
 352:Generated_Source\PSoC5/Timer1.c **** *  Interrupt Status register. Some of the bits are not relevant to this
 353:Generated_Source\PSoC5/Timer1.c **** *  component's operation.
 354:Generated_Source\PSoC5/Timer1.c **** *
 355:Generated_Source\PSoC5/Timer1.c **** *  The application code must always call this function (when the Sleep Timer's
 356:Generated_Source\PSoC5/Timer1.c **** *  interrupt is disabled or enabled) after wakeup to clear the ctw_int status
 357:Generated_Source\PSoC5/Timer1.c **** *  bit. The code must call SleepTimer_GetStatus() within 1 ms (1 clock cycle of
 358:Generated_Source\PSoC5/Timer1.c **** *  the ILO) after the CTW event occurred.
 359:Generated_Source\PSoC5/Timer1.c **** *
 360:Generated_Source\PSoC5/Timer1.c **** *******************************************************************************/
 361:Generated_Source\PSoC5/Timer1.c **** uint8 Timer1_GetStatus(void) 
 362:Generated_Source\PSoC5/Timer1.c **** {
 295              		.loc 1 362 0
 296              		.cfi_startproc
 297              		@ args = 0, pretend = 0, frame = 0
 298              		@ frame_needed = 0, uses_anonymous_args = 0
 299 0000 08B5     		push	{r3, lr}
 300              		.cfi_def_cfa_offset 8
 301              		.cfi_offset 3, -8
 302              		.cfi_offset 14, -4
 363:Generated_Source\PSoC5/Timer1.c ****     /* Read to clear  */
 364:Generated_Source\PSoC5/Timer1.c ****     return CyPmReadStatus(CY_PM_CTW_INT);
 303              		.loc 1 364 0
 304 0002 0220     		movs	r0, #2
 305 0004 FFF7FEFF 		bl	CyPmReadStatus
 306              	.LVL16:
 365:Generated_Source\PSoC5/Timer1.c **** }
 307              		.loc 1 365 0
 308 0008 08BD     		pop	{r3, pc}
 309              		.cfi_endproc
 310              	.LFE7:
ARM GAS  C:\Users\youkan\AppData\Local\Temp\ccUxTBdd.s 			page 13


 311              		.size	Timer1_GetStatus, .-Timer1_GetStatus
 312              		.global	Timer1_initVar
 313 000a 00BF     		.bss
 314              		.set	.LANCHOR0,. + 0
 315              		.type	Timer1_initVar, %object
 316              		.size	Timer1_initVar, 1
 317              	Timer1_initVar:
 318 0000 00       		.space	1
 319              		.text
 320              	.Letext0:
 321              		.file 2 "Generated_Source\\PSoC5\\cytypes.h"
 322              		.file 3 "Generated_Source\\PSoC5\\CyLib.h"
 323              		.file 4 "Generated_Source\\PSoC5\\cyPm.h"